
 Start  Stop   Length Name               Class

 00000H 02CA6H 02CA7H _TEXT              CODE
 02CA7H 02D28H 00082H ALLOC_TEXT         CODE
 02D29H 03133H 0040BH CHANNEL_TEXT       CODE
 03134H 03632H 004FFH CHERRY_TEXT        CODE
 03633H 040A0H 00A6EH CHERRY_P_TEXT      CODE
 040A1H 04A44H 009A4H CORE_TEXT          CODE
 04A45H 04D0BH 002C7H EVENT_TEXT         CODE
 04D0CH 04DF6H 000EBH EVCHERRY_TEXT      CODE
 04DF7H 04EE2H 000ECH EVCLOCK_TEXT       CODE
 04EE3H 05003H 00121H EVIO_TEXT          CODE
 05004H 05061H 0005EH EVKBD_TEXT         CODE
 05062H 0520DH 001ACH EVMOUSE_TEXT       CODE
 0520EH 0536CH 0015FH EVTIMER_TEXT       CODE
 0536DH 0536DH 00000H FORM_TEXT          CODE
 0536DH 0538EH 00022H HASH_INT_TEXT      CODE
 0538FH 05B14H 00786H HASH_TAB_TEXT      CODE
 05B15H 05FC7H 004B3H LIST_TEXT          CODE
 05FC8H 06424H 0045DH LOGGER_TEXT        CODE
 06425H 0654FH 0012BH MAIN_TEXT          CODE
 06550H 066E9H 0019AH MOUSE_TEXT         CODE
 066EAH 06751H 00068H SCREEN_TEXT        CODE
 06752H 07095H 00944H STRBUF_TEXT        CODE
 07096H 0728AH 001F5H STRUTILS_TEXT      CODE
 0728BH 07600H 00376H STYLE_TEXT         CODE
 07610H 0B289H 03C7AH _BGI_TEXT          CODE
 0B290H 0B857H 005C8H E87_PROG           CODE
 0B860H 0B860H 00000H _FARDATA           FAR_DATA
 0B860H 0B860H 00000H _FARBSS            FAR_BSS
 0B860H 0B860H 00000H _OVERLAY_          OVRINFO
 0B860H 0B860H 00000H _1STUB_            STUBSEG
 0B860H 0DA9FH 02240H _DATA              DATA
 0DAA0H 0DAA3H 00004H _CVTSEG            DATA
 0DAA4H 0DAA9H 00006H _SCNSEG            DATA
 0DAAAH 0DAAAH 00000H GRAPH              DATA
 0DAAAH 0DAAAH 00000H _CONST             CONST
 0DAAAH 0DAC1H 00018H _INIT_             INITDATA
 0DAC2H 0DAC2H 00000H _INITEND_          INITDATA
 0DAC2H 0DAC7H 00006H _EXIT_             EXITDATA
 0DAC8H 0DAC8H 00000H _EXITEND_          EXITDATA
 0DAC8H 0DB6FH 000A8H _BSS               BSS
 0DB70H 0DB70H 00000H _BSSEND            BSSEND
 0DB70H 0DC7FH 00110H _STACK             STACK


Detailed map of segments

 0000:0000 0295 C=CODE   S=_TEXT          G=(none)  M=c0.ASM     ACBP=28
 0000:0295 020E C=CODE   S=_TEXT          G=(none)  M=FP87INIT   ACBP=28
 0000:04A3 0000 C=CODE   S=_TEXT          G=(none)  M=E87TRAP    ACBP=28
 0000:04A3 0000 C=CODE   S=_TEXT          G=(none)  M=PROTFLAG   ACBP=28
 0000:04A3 0000 C=CODE   S=_TEXT          G=(none)  M=DEFLT87    ACBP=28
 0000:04A3 01BD C=CODE   S=_TEXT          G=(none)  M=REALCVT    ACBP=28
 0000:0660 020C C=CODE   S=_TEXT          G=(none)  M=XCVT       ACBP=28
 0000:086C 00B1 C=CODE   S=_TEXT          G=(none)  M=FPERR      ACBP=28
 0000:091D 00C9 C=CODE   S=_TEXT          G=(none)  M=_POW10     ACBP=28
 0000:09E6 000B C=CODE   S=_TEXT          G=(none)  M=POW10D     ACBP=28
 0000:09F1 002C C=CODE   S=_TEXT          G=(none)  M=FFTOL      ACBP=28
 0000:0A1D 002D C=CODE   S=_TEXT          G=(none)  M=ATEXIT     ACBP=28
 0000:0A4A 0049 C=CODE   S=_TEXT          G=(none)  M=CLOCK      ACBP=28
 0000:0A93 0000 C=CODE   S=_TEXT          G=(none)  M=CTYPE      ACBP=28
 0000:0A93 0093 C=CODE   S=_TEXT          G=(none)  M=EXIT       ACBP=28
 0000:0B26 0000 C=CODE   S=_TEXT          G=(none)  M=FILES      ACBP=28
 0000:0B26 0000 C=CODE   S=_TEXT          G=(none)  M=FILES2     ACBP=28
 0000:0B26 0000 C=CODE   S=_TEXT          G=(none)  M=FPSTKLEN   ACBP=28
 0000:0B26 0017 C=CODE   S=_TEXT          G=(none)  M=F_LXMUL    ACBP=28
 0000:0B3D 001C C=CODE   S=_TEXT          G=(none)  M=F_SCOPY    ACBP=28
 0000:0B59 0026 C=CODE   S=_TEXT          G=(none)  M=GETDATE    ACBP=28
 0000:0B7F 00AE C=CODE   S=_TEXT          G=(none)  M=H_LDIV     ACBP=28
 0000:0C2D 0021 C=CODE   S=_TEXT          G=(none)  M=H_LLSH     ACBP=28
 0000:0C4E 0060 C=CODE   S=_TEXT          G=(none)  M=H_PADD     ACBP=28
 0000:0CAE 004B C=CODE   S=_TEXT          G=(none)  M=IOERROR    ACBP=28
 0000:0CF9 0011 C=CODE   S=_TEXT          G=(none)  M=ISATTY     ACBP=28
 0000:0D0A 00A2 C=CODE   S=_TEXT          G=(none)  M=LONGTOA    ACBP=28
 0000:0DAC 0029 C=CODE   S=_TEXT          G=(none)  M=LSEEK      ACBP=28
 0000:0DD5 0017 C=CODE   S=_TEXT          G=(none)  M=N_LXMUL    ACBP=28
 0000:0DEC 0021 C=CODE   S=_TEXT          G=(none)  M=N_PCMP     ACBP=28
 0000:0E0D 01CD C=CODE   S=_TEXT          G=(none)  M=SCANTOL    ACBP=28
 0000:0FDA 0020 C=CODE   S=_TEXT          G=(none)  M=SEGREAD    ACBP=28
 0000:0FFA 00BA C=CODE   S=_TEXT          G=(none)  M=SETUPIO    ACBP=28
 0000:10B4 0000 C=CODE   S=_TEXT          G=(none)  M=SIGDATA    ACBP=28
 0000:10B4 0000 C=CODE   S=_TEXT          G=(none)  M=STKLEN     ACBP=28
 0000:10B4 04DB C=CODE   S=_TEXT          G=(none)  M=VPRINTER   ACBP=28
 0000:158F 002C C=CODE   S=_TEXT          G=(none)  M=ASSERT     ACBP=28
 0000:15BB 0025 C=CODE   S=_TEXT          G=(none)  M=BIOSKEY    ACBP=28
 0000:15E0 005D C=CODE   S=_TEXT          G=(none)  M=CALLOC     ACBP=28
 0000:163D 001F C=CODE   S=_TEXT          G=(none)  M=CVTFAK     ACBP=28
 0000:165C 009D C=CODE   S=_TEXT          G=(none)  M=DELAY      ACBP=28
 0000:16F9 0432 C=CODE   S=_TEXT          G=(none)  M=FARHEAP    ACBP=28
 0000:1B2B 0140 C=CODE   S=_TEXT          G=(none)  M=FBRK       ACBP=28
 0000:1C6B 000E C=CODE   S=_TEXT          G=(none)  M=GEXIT      ACBP=28
 0000:1C79 0012 C=CODE   S=_TEXT          G=(none)  M=GFREEMEM   ACBP=28
 0000:1C8B 000E C=CODE   S=_TEXT          G=(none)  M=GGETMEM    ACBP=28
 0000:1C99 00CA C=CODE   S=_TEXT          G=(none)  M=INT86      ACBP=28
 0000:1D63 0004 C=CODE   S=_TEXT          G=(none)  M=REALCVT    ACBP=28
 0000:1D67 012B C=CODE   S=_TEXT          G=(none)  M=SETARGV    ACBP=28
 0000:1E92 001C C=CODE   S=_TEXT          G=(none)  M=SETBLOCK   ACBP=28
 0000:1EAE 0024 C=CODE   S=_TEXT          G=(none)  M=STACK      ACBP=28
 0000:1ED2 00CD C=CODE   S=_TEXT          G=(none)  M=FFLUSH     ACBP=28
 0000:1F9F 0042 C=CODE   S=_TEXT          G=(none)  M=FLUSHALL   ACBP=28
 0000:1FE1 001C C=CODE   S=_TEXT          G=(none)  M=FPRINTF    ACBP=28
 0000:1FFD 01E2 C=CODE   S=_TEXT          G=(none)  M=FSEEK      ACBP=28
 0000:21DF 0024 C=CODE   S=_TEXT          G=(none)  M=MEMCPY     ACBP=28
 0000:2203 0043 C=CODE   S=_TEXT          G=(none)  M=MEMSET     ACBP=28
 0000:2246 0073 C=CODE   S=_TEXT          G=(none)  M=MOVMEM     ACBP=28
 0000:22B9 03C8 C=CODE   S=_TEXT          G=(none)  M=PUTC       ACBP=28
 0000:2681 011D C=CODE   S=_TEXT          G=(none)  M=SETVBUF    ACBP=28
 0000:279E 0083 C=CODE   S=_TEXT          G=(none)  M=SPRINTF    ACBP=28
 0000:2821 0046 C=CODE   S=_TEXT          G=(none)  M=STRDUP     ACBP=28
 0000:2867 001F C=CODE   S=_TEXT          G=(none)  M=STRLEN     ACBP=28
 0000:2886 0038 C=CODE   S=_TEXT          G=(none)  M=STRNCMP    ACBP=28
 0000:28BE 0031 C=CODE   S=_TEXT          G=(none)  M=STRNCPY    ACBP=28
 0000:28EF 0116 C=CODE   S=_TEXT          G=(none)  M=STRTOL     ACBP=28
 0000:2A05 00DD C=CODE   S=_TEXT          G=(none)  M=STRTOUL    ACBP=28
 0000:2AE2 0151 C=CODE   S=_TEXT          G=(none)  M=WRITE      ACBP=28
 0000:2C33 003C C=CODE   S=_TEXT          G=(none)  M=WRITEA     ACBP=28
 0000:2C6F 0038 C=CODE   S=_TEXT          G=(none)  M=XFFLUSH    ACBP=28
 02CA:0007 0082 C=CODE   S=ALLOC_TEXT     G=(none)  M=..\LIB\ALLOC.C ACBP=28
 02D2:0009 040B C=CODE   S=CHANNEL_TEXT   G=(none)  M=..\LIB\CHANNEL.C ACBP=28
 0313:0004 04FF C=CODE   S=CHERRY_TEXT    G=(none)  M=CHERRY.C   ACBP=28
 0363:0003 0A6E C=CODE   S=CHERRY_P_TEXT  G=(none)  M=CHERRY_P.C ACBP=28
 040A:0001 09A4 C=CODE   S=CORE_TEXT      G=(none)  M=CORE.C     ACBP=28
 04A4:0005 02C7 C=CODE   S=EVENT_TEXT     G=(none)  M=EVENT.C    ACBP=28
 04D0:000C 00EB C=CODE   S=EVCHERRY_TEXT  G=(none)  M=EVCHERRY.C ACBP=28
 04DF:0007 00EC C=CODE   S=EVCLOCK_TEXT   G=(none)  M=EVCLOCK.C  ACBP=28
 04EE:0003 0121 C=CODE   S=EVIO_TEXT      G=(none)  M=EVIO.C     ACBP=28
 0500:0004 005E C=CODE   S=EVKBD_TEXT     G=(none)  M=EVKBD.C    ACBP=28
 0506:0002 01AC C=CODE   S=EVMOUSE_TEXT   G=(none)  M=EVMOUSE.C  ACBP=28
 0520:000E 015F C=CODE   S=EVTIMER_TEXT   G=(none)  M=EVTIMER.C  ACBP=28
 0536:000D 0000 C=CODE   S=FORM_TEXT      G=(none)  M=FORM.C     ACBP=28
 0536:000D 0022 C=CODE   S=HASH_INT_TEXT  G=(none)  M=..\C_ALGO\HASH_INT.C ACBP=28
 0538:000F 0786 C=CODE   S=HASH_TAB_TEXT  G=(none)  M=..\C_ALGO\HASH_TAB.C ACBP=28
 05B1:0005 04B3 C=CODE   S=LIST_TEXT      G=(none)  M=..\LIB\LIST.C ACBP=28
 05FC:0008 045D C=CODE   S=LOGGER_TEXT    G=(none)  M=..\LIB\LOGGER.C ACBP=28
 0642:0005 012B C=CODE   S=MAIN_TEXT      G=(none)  M=MAIN.C     ACBP=28
 0655:0000 019A C=CODE   S=MOUSE_TEXT     G=(none)  M=MOUSE.C    ACBP=28
 066E:000A 0068 C=CODE   S=SCREEN_TEXT    G=(none)  M=SCREEN.C   ACBP=28
 0675:0002 0944 C=CODE   S=STRBUF_TEXT    G=(none)  M=..\LIB\STRBUF.C ACBP=28
 0709:0006 01F5 C=CODE   S=STRUTILS_TEXT  G=(none)  M=..\LIB\STRUTILS.C ACBP=28
 0728:000B 0376 C=CODE   S=STYLE_TEXT     G=(none)  M=STYLE.C    ACBP=28
 0761:0000 18AA C=CODE   S=_BGI_TEXT      G=(none)  M=GRAPHC     ACBP=28
 0761:18AA 0A27 C=CODE   S=_BGI_TEXT      G=(none)  M=GRAPH      ACBP=28
 0761:22E0 199A C=CODE   S=_BGI_TEXT      G=(none)  M=BGIOVR     ACBP=68
 0B29:0000 0000 C=CODE   S=E87_PROG       G=(none)  M=FP87INIT   ACBP=68
 0B29:0000 03E3 C=CODE   S=E87_PROG       G=(none)  M=EMU087     ACBP=68
 0B29:03F0 01D8 C=CODE   S=E87_PROG       G=(none)  M=E87TRAP    ACBP=68
 0B86:0000 0000 C=FAR_DATA S=_FARDATA       G=(none)  M=c0.ASM     ACBP=68
 0B86:0000 0000 C=FAR_BSS S=_FARBSS        G=(none)  M=c0.ASM     ACBP=68
 0B86:0000 0000 C=OVRINFO S=_OVERLAY_      G=(none)  M=c0.ASM     ACBP=68
 0B86:0000 0000 C=STUBSEG S=_1STUB_        G=(none)  M=c0.ASM     ACBP=68
 0B86:0000 0093 C=DATA   S=_DATA          G=DGROUP  M=c0.ASM     ACBP=68
 0B86:0094 007A C=DATA   S=_DATA          G=DGROUP  M=..\LIB\ALLOC.C ACBP=48
 0B86:010E 026D C=DATA   S=_DATA          G=DGROUP  M=..\LIB\CHANNEL.C ACBP=48
 0B86:037C 0268 C=DATA   S=_DATA          G=DGROUP  M=CHERRY.C   ACBP=48
 0B86:05E4 02BC C=DATA   S=_DATA          G=DGROUP  M=CHERRY_P.C ACBP=48
 0B86:08A0 01F6 C=DATA   S=_DATA          G=DGROUP  M=CORE.C     ACBP=48
 0B86:0A96 006A C=DATA   S=_DATA          G=DGROUP  M=EVENT.C    ACBP=48
 0B86:0B00 0074 C=DATA   S=_DATA          G=DGROUP  M=EVCHERRY.C ACBP=48
 0B86:0B74 0008 C=DATA   S=_DATA          G=DGROUP  M=EVCLOCK.C  ACBP=48
 0B86:0B7C 003D C=DATA   S=_DATA          G=DGROUP  M=EVIO.C     ACBP=48
 0B86:0BBA 0000 C=DATA   S=_DATA          G=DGROUP  M=EVKBD.C    ACBP=48
 0B86:0BBA 000C C=DATA   S=_DATA          G=DGROUP  M=EVMOUSE.C  ACBP=48
 0B86:0BC6 004C C=DATA   S=_DATA          G=DGROUP  M=EVTIMER.C  ACBP=48
 0B86:0C12 0000 C=DATA   S=_DATA          G=DGROUP  M=FORM.C     ACBP=48
 0B86:0C12 0000 C=DATA   S=_DATA          G=DGROUP  M=..\C_ALGO\HASH_INT.C ACBP=48
 0B86:0C12 0014 C=DATA   S=_DATA          G=DGROUP  M=..\C_ALGO\HASH_TAB.C ACBP=48
 0B86:0C26 0000 C=DATA   S=_DATA          G=DGROUP  M=..\LIB\LIST.C ACBP=48
 0B86:0C26 008C C=DATA   S=_DATA          G=DGROUP  M=..\LIB\LOGGER.C ACBP=48
 0B86:0CB2 02D4 C=DATA   S=_DATA          G=DGROUP  M=MAIN.C     ACBP=48
 0B86:0F86 0012 C=DATA   S=_DATA          G=DGROUP  M=MOUSE.C    ACBP=48
 0B86:0F98 0004 C=DATA   S=_DATA          G=DGROUP  M=SCREEN.C   ACBP=48
 0B86:0F9C 051D C=DATA   S=_DATA          G=DGROUP  M=..\LIB\STRBUF.C ACBP=48
 0B86:14BA 000A C=DATA   S=_DATA          G=DGROUP  M=..\LIB\STRUTILS.C ACBP=48
 0B86:14C4 01F3 C=DATA   S=_DATA          G=DGROUP  M=STYLE.C    ACBP=48
 0B86:16B8 0006 C=DATA   S=_DATA          G=DGROUP  M=GLOAD      ACBP=48
 0B86:16BE 065B C=DATA   S=_DATA          G=DGROUP  M=GRAPHC     ACBP=48
 0B86:1D1A 000B C=DATA   S=_DATA          G=DGROUP  M=GRAPH      ACBP=48
 0B86:1D30 0002 C=DATA   S=_DATA          G=DGROUP  M=FP87INIT   ACBP=68
 0B86:1D40 0000 C=DATA   S=_DATA          G=DGROUP  M=E87TRAP    ACBP=68
 0B86:1D40 0003 C=DATA   S=_DATA          G=DGROUP  M=PROTFLAG   ACBP=48
 0B86:1D44 0002 C=DATA   S=_DATA          G=DGROUP  M=DEFLT87    ACBP=48
 0B86:1D46 0000 C=DATA   S=_DATA          G=DGROUP  M=REALCVT    ACBP=48
 0B86:1D46 0000 C=DATA   S=_DATA          G=DGROUP  M=XCVT       ACBP=48
 0B86:1D46 009A C=DATA   S=_DATA          G=DGROUP  M=FPERR      ACBP=48
 0B86:1DE0 0080 C=DATA   S=_DATA          G=DGROUP  M=_POW10     ACBP=48
 0B86:1E60 0000 C=DATA   S=_DATA          G=DGROUP  M=POW10D     ACBP=48
 0B86:1E60 0000 C=DATA   S=_DATA          G=DGROUP  M=FFTOL      ACBP=48
 0B86:1E60 0002 C=DATA   S=_DATA          G=DGROUP  M=ATEXIT     ACBP=48
 0B86:1E62 0000 C=DATA   S=_DATA          G=DGROUP  M=CLOCK      ACBP=48
 0B86:1E62 0101 C=DATA   S=_DATA          G=DGROUP  M=CTYPE      ACBP=48
 0B86:1F64 000C C=DATA   S=_DATA          G=DGROUP  M=EXIT       ACBP=48
 0B86:1F70 0190 C=DATA   S=_DATA          G=DGROUP  M=FILES      ACBP=48
 0B86:2100 002A C=DATA   S=_DATA          G=DGROUP  M=FILES2     ACBP=48
 0B86:212A 0002 C=DATA   S=_DATA          G=DGROUP  M=FPSTKLEN   ACBP=48
 0B86:212C 0000 C=DATA   S=_DATA          G=DGROUP  M=F_LXMUL    ACBP=48
 0B86:212C 0000 C=DATA   S=_DATA          G=DGROUP  M=F_SCOPY    ACBP=48
 0B86:212C 0000 C=DATA   S=_DATA          G=DGROUP  M=GETDATE    ACBP=48
 0B86:212C 0000 C=DATA   S=_DATA          G=DGROUP  M=H_LDIV     ACBP=48
 0B86:212C 0000 C=DATA   S=_DATA          G=DGROUP  M=H_LLSH     ACBP=48
 0B86:212C 0000 C=DATA   S=_DATA          G=DGROUP  M=H_PADD     ACBP=48
 0B86:212C 005B C=DATA   S=_DATA          G=DGROUP  M=IOERROR    ACBP=48
 0B86:2188 0000 C=DATA   S=_DATA          G=DGROUP  M=ISATTY     ACBP=48
 0B86:2188 0000 C=DATA   S=_DATA          G=DGROUP  M=LONGTOA    ACBP=48
 0B86:2188 0000 C=DATA   S=_DATA          G=DGROUP  M=LSEEK      ACBP=48
 0B86:2188 0000 C=DATA   S=_DATA          G=DGROUP  M=N_LXMUL    ACBP=48
 0B86:2188 0000 C=DATA   S=_DATA          G=DGROUP  M=N_PCMP     ACBP=48
 0B86:2188 0000 C=DATA   S=_DATA          G=DGROUP  M=SCANTOL    ACBP=48
 0B86:2188 0000 C=DATA   S=_DATA          G=DGROUP  M=SEGREAD    ACBP=48
 0B86:2188 0000 C=DATA   S=_DATA          G=DGROUP  M=SETUPIO    ACBP=48
 0B86:2188 0000 C=DATA   S=_DATA          G=DGROUP  M=SIGDATA    ACBP=48
 0B86:2188 0002 C=DATA   S=_DATA          G=DGROUP  M=STKLEN     ACBP=48
 0B86:218A 0067 C=DATA   S=_DATA          G=DGROUP  M=VPRINTER   ACBP=48
 0B86:21F2 0000 C=DATA   S=_DATA          G=DGROUP  M=ASSERT     ACBP=48
 0B86:21F2 0000 C=DATA   S=_DATA          G=DGROUP  M=BIOSKEY    ACBP=48
 0B86:21F2 0000 C=DATA   S=_DATA          G=DGROUP  M=CALLOC     ACBP=48
 0B86:21F2 0031 C=DATA   S=_DATA          G=DGROUP  M=CVTFAK     ACBP=48
 0B86:2224 0004 C=DATA   S=_DATA          G=DGROUP  M=DELAY      ACBP=48
 0B86:2228 0000 C=DATA   S=_DATA          G=DGROUP  M=FARHEAP    ACBP=48
 0B86:2228 0002 C=DATA   S=_DATA          G=DGROUP  M=FBRK       ACBP=48
 0B86:222A 0000 C=DATA   S=_DATA          G=DGROUP  M=GEXIT      ACBP=48
 0B86:222A 0000 C=DATA   S=_DATA          G=DGROUP  M=GFREEMEM   ACBP=48
 0B86:222A 0000 C=DATA   S=_DATA          G=DGROUP  M=GGETMEM    ACBP=48
 0B86:222A 0000 C=DATA   S=_DATA          G=DGROUP  M=INT86      ACBP=48
 0B86:222A 0000 C=DATA   S=_DATA          G=DGROUP  M=REALCVT    ACBP=48
 0B86:222A 0010 C=DATA   S=_DATA          G=DGROUP  M=SETARGV    ACBP=48
 0B86:223A 0000 C=DATA   S=_DATA          G=DGROUP  M=SETBLOCK   ACBP=48
 0B86:223A 0000 C=DATA   S=_DATA          G=DGROUP  M=STACK      ACBP=48
 0B86:223A 0000 C=DATA   S=_DATA          G=DGROUP  M=FFLUSH     ACBP=48
 0B86:223A 0000 C=DATA   S=_DATA          G=DGROUP  M=FLUSHALL   ACBP=48
 0B86:223A 0000 C=DATA   S=_DATA          G=DGROUP  M=FPRINTF    ACBP=48
 0B86:223A 0000 C=DATA   S=_DATA          G=DGROUP  M=FSEEK      ACBP=48
 0B86:223A 0000 C=DATA   S=_DATA          G=DGROUP  M=MEMCPY     ACBP=48
 0B86:223A 0000 C=DATA   S=_DATA          G=DGROUP  M=MEMSET     ACBP=48
 0B86:223A 0000 C=DATA   S=_DATA          G=DGROUP  M=MOVMEM     ACBP=48
 0B86:223A 0001 C=DATA   S=_DATA          G=DGROUP  M=PUTC       ACBP=48
 0B86:223C 0004 C=DATA   S=_DATA          G=DGROUP  M=SETVBUF    ACBP=48
 0B86:2240 0000 C=DATA   S=_DATA          G=DGROUP  M=SPRINTF    ACBP=48
 0B86:2240 0000 C=DATA   S=_DATA          G=DGROUP  M=STRDUP     ACBP=48
 0B86:2240 0000 C=DATA   S=_DATA          G=DGROUP  M=STRLEN     ACBP=48
 0B86:2240 0000 C=DATA   S=_DATA          G=DGROUP  M=STRNCMP    ACBP=48
 0B86:2240 0000 C=DATA   S=_DATA          G=DGROUP  M=STRNCPY    ACBP=48
 0B86:2240 0000 C=DATA   S=_DATA          G=DGROUP  M=STRTOL     ACBP=48
 0B86:2240 0000 C=DATA   S=_DATA          G=DGROUP  M=STRTOUL    ACBP=48
 0B86:2240 0000 C=DATA   S=_DATA          G=DGROUP  M=WRITE      ACBP=48
 0B86:2240 0000 C=DATA   S=_DATA          G=DGROUP  M=WRITEA     ACBP=48
 0B86:2240 0000 C=DATA   S=_DATA          G=DGROUP  M=XFFLUSH    ACBP=48
 0B86:2240 0000 C=DATA   S=_CVTSEG        G=DGROUP  M=c0.ASM     ACBP=48
 0B86:2240 0002 C=DATA   S=_CVTSEG        G=DGROUP  M=REALCVT    ACBP=48
 0B86:2242 0002 C=DATA   S=_CVTSEG        G=DGROUP  M=CVTFAK     ACBP=48
 0B86:2244 0000 C=DATA   S=_CVTSEG        G=DGROUP  M=REALCVT    ACBP=48
 0B86:2244 0000 C=DATA   S=_SCNSEG        G=DGROUP  M=c0.ASM     ACBP=48
 0B86:2244 0006 C=DATA   S=_SCNSEG        G=DGROUP  M=CVTFAK     ACBP=48
 0B86:224A 0000 C=DATA   S=GRAPH          G=DGROUP  M=GRAPHC     ACBP=48
 0B86:224A 0000 C=CONST  S=_CONST         G=DGROUP  M=c0.ASM     ACBP=48
 0B86:224A 0000 C=INITDATA S=_INIT_         G=DGROUP  M=c0.ASM     ACBP=48
 0B86:224A 0006 C=INITDATA S=_INIT_         G=DGROUP  M=FP87INIT   ACBP=48
 0B86:2250 0006 C=INITDATA S=_INIT_         G=DGROUP  M=SETUPIO    ACBP=48
 0B86:2256 0006 C=INITDATA S=_INIT_         G=DGROUP  M=DELAY      ACBP=48
 0B86:225C 0006 C=INITDATA S=_INIT_         G=DGROUP  M=SETARGV    ACBP=48
 0B86:2262 0000 C=INITDATA S=_INITEND_      G=DGROUP  M=c0.ASM     ACBP=28
 0B86:2262 0000 C=EXITDATA S=_EXIT_         G=DGROUP  M=c0.ASM     ACBP=48
 0B86:2262 0006 C=EXITDATA S=_EXIT_         G=DGROUP  M=FP87INIT   ACBP=48
 0B86:2268 0000 C=EXITDATA S=_EXITEND_      G=DGROUP  M=c0.ASM     ACBP=28
 0B86:2268 0000 C=BSS    S=_BSS           G=DGROUP  M=c0.ASM     ACBP=48
 0B86:2268 0000 C=BSS    S=_BSS           G=DGROUP  M=..\LIB\ALLOC.C ACBP=48
 0B86:2268 0000 C=BSS    S=_BSS           G=DGROUP  M=..\LIB\CHANNEL.C ACBP=48
 0B86:2268 0000 C=BSS    S=_BSS           G=DGROUP  M=CHERRY.C   ACBP=48
 0B86:2268 0000 C=BSS    S=_BSS           G=DGROUP  M=CHERRY_P.C ACBP=48
 0B86:2268 0000 C=BSS    S=_BSS           G=DGROUP  M=CORE.C     ACBP=48
 0B86:2268 0000 C=BSS    S=_BSS           G=DGROUP  M=EVENT.C    ACBP=48
 0B86:2268 0000 C=BSS    S=_BSS           G=DGROUP  M=EVCHERRY.C ACBP=48
 0B86:2268 0000 C=BSS    S=_BSS           G=DGROUP  M=EVCLOCK.C  ACBP=48
 0B86:2268 0000 C=BSS    S=_BSS           G=DGROUP  M=EVIO.C     ACBP=48
 0B86:2268 0000 C=BSS    S=_BSS           G=DGROUP  M=EVKBD.C    ACBP=48
 0B86:2268 0000 C=BSS    S=_BSS           G=DGROUP  M=EVMOUSE.C  ACBP=48
 0B86:2268 0000 C=BSS    S=_BSS           G=DGROUP  M=EVTIMER.C  ACBP=48
 0B86:2268 0000 C=BSS    S=_BSS           G=DGROUP  M=FORM.C     ACBP=48
 0B86:2268 0000 C=BSS    S=_BSS           G=DGROUP  M=..\C_ALGO\HASH_INT.C ACBP=48
 0B86:2268 0000 C=BSS    S=_BSS           G=DGROUP  M=..\C_ALGO\HASH_TAB.C ACBP=48
 0B86:2268 0000 C=BSS    S=_BSS           G=DGROUP  M=..\LIB\LIST.C ACBP=48
 0B86:2268 0000 C=BSS    S=_BSS           G=DGROUP  M=..\LIB\LOGGER.C ACBP=48
 0B86:2268 0000 C=BSS    S=_BSS           G=DGROUP  M=MAIN.C     ACBP=48
 0B86:2268 0020 C=BSS    S=_BSS           G=DGROUP  M=MOUSE.C    ACBP=48
 0B86:2288 0000 C=BSS    S=_BSS           G=DGROUP  M=SCREEN.C   ACBP=48
 0B86:2288 0000 C=BSS    S=_BSS           G=DGROUP  M=..\LIB\STRBUF.C ACBP=48
 0B86:2288 0000 C=BSS    S=_BSS           G=DGROUP  M=..\LIB\STRUTILS.C ACBP=48
 0B86:2288 0000 C=BSS    S=_BSS           G=DGROUP  M=STYLE.C    ACBP=48
 0B86:2288 0000 C=BSS    S=_BSS           G=DGROUP  M=REALCVT    ACBP=48
 0B86:2288 0000 C=BSS    S=_BSS           G=DGROUP  M=XCVT       ACBP=48
 0B86:2288 0000 C=BSS    S=_BSS           G=DGROUP  M=_POW10     ACBP=48
 0B86:2288 0080 C=BSS    S=_BSS           G=DGROUP  M=ATEXIT     ACBP=48
 0B86:2308 0001 C=BSS    S=_BSS           G=DGROUP  M=CLOCK      ACBP=48
 0B86:230A 0000 C=BSS    S=_BSS           G=DGROUP  M=IOERROR    ACBP=48
 0B86:230A 0000 C=BSS    S=_BSS           G=DGROUP  M=ISATTY     ACBP=48
 0B86:230A 0000 C=BSS    S=_BSS           G=DGROUP  M=LONGTOA    ACBP=48
 0B86:230A 0000 C=BSS    S=_BSS           G=DGROUP  M=LSEEK      ACBP=48
 0B86:230A 0000 C=BSS    S=_BSS           G=DGROUP  M=SCANTOL    ACBP=48
 0B86:230A 0000 C=BSS    S=_BSS           G=DGROUP  M=SEGREAD    ACBP=48
 0B86:230A 0000 C=BSS    S=_BSS           G=DGROUP  M=SETUPIO    ACBP=48
 0B86:230A 0004 C=BSS    S=_BSS           G=DGROUP  M=SIGDATA    ACBP=48
 0B86:230E 0000 C=BSS    S=_BSS           G=DGROUP  M=VPRINTER   ACBP=48
 0B86:230E 0000 C=BSS    S=_BSS           G=DGROUP  M=BIOSKEY    ACBP=48
 0B86:230E 0000 C=BSS    S=_BSS           G=DGROUP  M=DELAY      ACBP=48
 0B86:230E 0000 C=BSS    S=_BSS           G=DGROUP  M=INT86      ACBP=48
 0B86:230E 0000 C=BSS    S=_BSS           G=DGROUP  M=SETBLOCK   ACBP=48
 0B86:230E 0000 C=BSS    S=_BSS           G=DGROUP  M=MEMCPY     ACBP=48
 0B86:230E 0000 C=BSS    S=_BSS           G=DGROUP  M=MEMSET     ACBP=48
 0B86:230E 0000 C=BSS    S=_BSS           G=DGROUP  M=MOVMEM     ACBP=48
 0B86:230E 0001 C=BSS    S=_BSS           G=DGROUP  M=PUTC       ACBP=48
 0B86:2310 0000 C=BSS    S=_BSS           G=DGROUP  M=STRLEN     ACBP=48
 0B86:2310 0000 C=BSS    S=_BSS           G=DGROUP  M=STRNCMP    ACBP=48
 0B86:2310 0000 C=BSS    S=_BSS           G=DGROUP  M=STRNCPY    ACBP=48
 0B86:2310 0000 C=BSS    S=_BSS           G=DGROUP  M=WRITEA     ACBP=48
 0B86:2310 0000 C=BSSEND S=_BSSEND        G=DGROUP  M=c0.ASM     ACBP=28
 0DB7:0000 0110 C=STACK  S=_STACK         G=(none)  M=c0.ASM     ACBP=74
 0DB7:0000 0080 C=STACK  S=_STACK         G=(none)  M=EMUVARS    ACBP=78

  Address         Publics by Name

 0761:18AA idle  @DGROUP
 0B86:0000 idle  DATASEG@
 0000:0291 idle  DGROUP@
 0B29:0306       e087_Entry
 0B29:03C6       e087_Shortcut
 0B29:0430       e087_Trap
 0000:0000 idle  FIARQQ
 0000:0000 idle  FICRQQ
 0000:0000  Abs  FIDRQQ
 0000:0000  Abs  FIERQQ
 0000:0000 idle  FISRQQ
 0000:0000  Abs  FIWRQQ
 0000:0000 idle  FJARQQ
 0000:0000 idle  FJCRQQ
 0000:0000 idle  FJSRQQ
 0000:09F1 idle  FTOL@
 0000:09F1       F_FTOL@
 0000:0B82       F_LDIV@
 0000:0B91 idle  F_LMOD@
 0000:0B89 idle  F_LUDIV@
 0000:0B99 idle  F_LUMOD@
 0000:0C30 idle  F_LXLSH@
 0000:0B26       F_LXMUL@
 0000:1EC0       F_OVERFLOW@
 0000:0C51 idle  F_PADD@
 0000:0C80 idle  F_PSUB@
 0000:0B3D       F_SCOPY@
 0000:0B82 idle  LDIV@
 0000:0B91 idle  LMOD@
 0000:0B89 idle  LUDIV@
 0000:0B99 idle  LUMOD@
 0000:0C30 idle  LXLSH@
 0000:0B26 idle  LXMUL@
 0000:0B7F idle  N_LDIV@
 0000:0B8E idle  N_LMOD@
 0000:0B86 idle  N_LUDIV@
 0000:0B96 idle  N_LUMOD@
 0000:0C2D       N_LXLSH@
 0000:0DD5       N_LXMUL@
 0000:1EC0 idle  N_OVERFLOW@
 0000:0C4E       N_PADD@
 0000:0DEC       N_PCMP@
 0000:0C7D idle  N_PSUB@
 0000:1EC0 idle  OVERFLOW@
 0000:0C51 idle  PADD@
 0000:0C80 idle  PSUB@
 0000:0B3D idle  SCOPY@
 0000:027A       _abort
 0761:1316 idle  _arc
 0000:0A1D idle  _atexit
 0761:1C83       _bar
 0761:1CA6 idle  _bar3d
 0000:15BB       _bioskey
 0000:15E0       _calloc
 02D2:017D       _channel_bytes_available
 02D2:00DD idle  _channel_can_read
 02D2:012D idle  _channel_can_write
 02D2:005E idle  _channel_delete
 02D2:0009 idle  _channel_new
 02D2:01CD idle  _channel_read
 02D2:02F4 idle  _channel_read_begin
 02D2:0354 idle  _channel_read_commit
 02D2:03B4 idle  _channel_read_rollback
 02D2:024B idle  _channel_write
 02D2:02C9 idle  _channel_write_byte
 0761:1341 idle  _circle
 0761:0F18       _cleardevice
 0761:0FCE idle  _clearviewport
 0000:0A4A       _clock
 0761:0E6E       _closegraph
 04EE:0003 idle  _cwt_add_channel_listener
 0728:011D       _cwt_assign_style
 0728:019D idle  _cwt_clone_style
 0363:04FA idle  _cwt_clone_widget
 040A:0255       _cwt_default_font
 0313:0055 idle  _cwt_deferred_delete_widget
 0313:0098 idle  _cwt_delete_children
 0728:00C2       _cwt_delete_style
 0313:0004       _cwt_delete_widget
 04A4:028D idle  _cwt_event_loop
 040A:00DD       _cwt_finish
 040A:0001       _cwt_init
 04A4:0262       _cwt_main_loop
 0655:008E       _cwt_mouse_hide
 0655:0000       _cwt_mouse_init
 0655:0053       _cwt_mouse_ready
 0655:0142 idle  _cwt_mouse_region
 0655:010E idle  _cwt_mouse_setxy
 0655:0066       _cwt_mouse_show
 0655:00B6       _cwt_mouse_stat
 0728:000B       _cwt_new_style
 0363:004D       _cwt_new_widget
 04A4:008F       _cwt_post_event
 04A4:006D       _cwt_quit
 04EE:005E idle  _cwt_remove_channel_listener
 066E:000A       _cwt_screen
 0520:00C0 idle  _cwt_start_timer
 0728:0348 idle  _cwt_style_set_align
 0728:01E0       _cwt_style_set_border
 0728:0298       _cwt_style_set_color
 0728:02DB idle  _cwt_style_set_font
 0728:0241       _cwt_style_set_padding
 0363:0028 idle  _cwt_widget_by_id
 0313:0219       _cwt_widget_height
 0313:0495 idle  _cwt_widget_hide
 0313:02E3       _cwt_widget_moveto
 0313:024F       _cwt_widget_repaint
 0313:0341       _cwt_widget_resize
 0313:00C4 idle  _cwt_widget_set_style
 0313:014E       _cwt_widget_set_styles
 0313:03DC       _cwt_widget_show
 0313:0296 idle  _cwt_widget_update
 0313:01E3       _cwt_widget_width
 0000:1698       _delay
 0761:0671 idle  _detectgraph
 05B1:040D       _dlist_back_traverse
 05B1:0478 idle  _dlist_clear
 05B1:0455       _dlist_find
 05B1:01E0 idle  _dlist_insert_after
 05B1:0246 idle  _dlist_insert_before
 05B1:02AB idle  _dlist_insert_first
 05B1:0313       _dlist_insert_last
 05B1:0361       _dlist_remove
 05B1:03E4       _dlist_traverse
 0761:1C43 idle  _drawpoly
 0761:1CE7       _ellipse
 0B86:007F       _errno
 0000:0AEB       _exit
 0000:1839 idle  _farfree
 0000:194D idle  _farmalloc
 0000:1AB1 idle  _farrealloc
 0000:1ED2       _fflush
 0761:1D17 idle  _fillellipse
 0761:1C63       _fillpoly
 0761:1F06 idle  _floodfill
 0000:1F9F       _flushall
 0000:1FE1       _fprintf
 0000:22D5 idle  _fputc
 0000:246A idle  _fputchar
 0000:1839       _free
 0000:207F       _fseek
 0000:20FF idle  _ftell
 0761:1D84 idle  _getarccoords
 0761:136D idle  _getaspectratio
 0761:1419       _getbkcolor
 0761:1408       _getcolor
 0000:0B59       _getdate
 0761:1E04       _getdefaultpalette
 0761:10CA idle  _getdrivername
 0761:127F idle  _getfillpattern
 0761:122E       _getfillsettings
 0761:0E19 idle  _getgraphmode
 0761:20B7 idle  _getimage
 0761:1176       _getlinesettings
 0761:1DCE       _getmaxcolor
 0761:1E42       _getmaxmode
 0761:10A4       _getmaxx
 0761:10B7       _getmaxy
 0761:10F0 idle  _getmodename
 0761:05D2 idle  _getmoderange
 0761:1513       _getpalette
 0761:1DE9       _getpalettesize
 0761:2076       _getpixel
 0761:15F6       _gettextsettings
 0000:0B6C       _gettime
 0761:0FAF       _getviewsettings
 0761:1086 idle  _getx
 0761:1095 idle  _gety
 0761:089F idle  _graphdefaults
 0761:0193       _grapherrormsg
 0761:030D       _graphresult
 0538:016E       _hash_table_free
 0538:0342       _hash_table_insert
 0538:0637 idle  _hash_table_iterate
 0538:06AA idle  _hash_table_iter_has_more
 0538:06CC idle  _hash_table_iter_next
 0538:04C2       _hash_table_lookup
 0538:00D9       _hash_table_new
 0538:0620       _hash_table_num_entries
 0538:01F9       _hash_table_register_free_functions
 0538:0558       _hash_table_remove
 0761:1532 idle  _imagesize
 0761:0985       _initgraph
 05FC:01F0       _init_loggers
 0761:0BF9 idle  _installuserdriver
 0761:0CE7       _installuserfont
 0000:1C99       _int86
 0000:1CCA idle  _int86x
 0536:000D       _int_hash
 0000:0CF9       _isatty
 02CA:004C       _jq_free
 02CA:0007       _jq_malloc
 0761:1C20       _line
 0761:113B idle  _linerel
 0761:1114       _lineto
 05B1:016D idle  _list_clear
 05B1:0127 idle  _list_find
 05B1:004C idle  _list_insert_after
 05B1:0078 idle  _list_insert_first
 05B1:00A2 idle  _list_remove_after
 05B1:00E6 idle  _list_remove_first
 05B1:0005 idle  _list_traverse
 0B86:0C26 idle  _LOGGER_CONTEXT
 0B86:0CB2 idle  _lorem_ipsum
 0000:0DAC       _lseek
 0642:00E5       _main
 0000:1943       _malloc
 0000:21DF       _memcpy
 0000:2298       _memmove
 0000:2227 idle  _memset
 0761:1066 idle  _moverel
 0761:103F       _moveto
 0000:2246 idle  _movmem
 0761:1615       _outtext
 0761:1F7B       _outtextxy
 0761:13A3 idle  _pieslice
 0761:18EE idle  _postdevice
 0000:09E6       _pow10
 05FC:03A9       _printf_debug
 05FC:0436       _printf_error
 05FC:03D8 idle  _printf_info
 05FC:037A idle  _printf_trace
 05FC:0407 idle  _printf_warn
 05FC:02C3 idle  _print_debug
 05FC:0320 idle  _print_error
 05FC:02E2 idle  _print_info
 05FC:02A4 idle  _print_trace
 05FC:0301 idle  _print_warn
 0761:1567 idle  _putimage
 0761:2097       _putpixel
 0000:1AAA idle  _realloc
 0761:11D8       _rectangle
 0761:03F3 idle  _registerfarbgidriver
 0761:04AC idle  _registerfarbgifont
 0761:0E3C idle  _restorecrtmode
 0761:1D54       _sector
 0000:0FDA       _segread
 0761:1A12 idle  _setactivepage
 0761:142A idle  _setallpalette
 0761:138B idle  _setaspectratio
 0761:13CE       _setbkcolor
 0000:1E92       _setblock
 0761:1DAD       _setcolor
 0761:129F idle  _setfillpattern
 0761:124B       _setfillstyle
 0761:059B idle  _setgraphbufsize
 0761:0D91 idle  _setgraphmode
 0761:1195       _setlinestyle
 0000:2203       _setmem
 0761:14D0 idle  _setpalette
 0761:1E7D idle  _setrgbpalette
 0761:1663       _settextjustify
 0761:16A4       _settextstyle
 0761:1873 idle  _setusercharsize
 0000:2681       _setvbuf
 0761:0F33       _setviewport
 0761:19EF idle  _setvisualpage
 0761:1A38       _setwritemode
 05FC:016D idle  _set_default_printers
 05FC:0008 idle  _set_printer
 0000:27DE idle  _sprintf
 0675:05C3       _strbuf_append
 0675:0544 idle  _strbuf_append_char
 0675:0453 idle  _strbuf_capacity
 0675:04CB       _strbuf_clear
 0675:0116 idle  _strbuf_clone
 0675:0888       _strbuf_cstr
 0675:00D5 idle  _strbuf_delete
 0675:0764 idle  _strbuf_insert
 0675:06E4 idle  _strbuf_insert_char
 0675:048A idle  _strbuf_is_empty
 0675:026F idle  _strbuf_lreserve
 0675:0339 idle  _strbuf_mreserve
 0675:001E idle  _strbuf_new
 0675:0002       _strbuf_new_defaults
 0675:0663 idle  _strbuf_prepend
 0675:07FD idle  _strbuf_remove_char
 0675:0199 idle  _strbuf_reserve
 0675:050D idle  _strbuf_size
 0675:08B8 idle  _strbuf_substr
 0000:2821       _strdup
 0000:2867       _strlen
 0000:2886       _strncmp
 0000:28BE       _strncpy
 0709:01A5       _strndup
 0000:2921       _strtol
 0000:2A37       _strtoul
 0709:0006 idle  _str_to_long
 0709:0158 idle  _str_to_uint
 0709:00AF idle  _str_to_ulong
 0761:1899       _textheight
 0761:2028       _textwidth
 0B86:08AE idle  _VP_BOTTOM
 0B86:08A8 idle  _VP_LEFT
 0B86:08AC idle  _VP_RIGHT
 0B86:08AA idle  _VP_TOP
 0000:2800       _vsprintf
 0B86:1D30 idle  __8087
 0000:1000 idle  __AHINCR
 0000:000C idle  __AHSHIFT
 0B86:222A idle  __argc
 0B86:222C idle  __argv
 0B86:1E60       __atexitcnt
 0B86:2288       __atexittbl
 0761:1AFC       __autodetect
 0B86:18DE idle  __backcolor
 0B86:1859       __BGI_ADD
 0B86:16BC       __BGI_auto
 0B86:16B8       __BGI_ovr
 0000:1BA1       __brk
 0B86:008B       __brklvl
 0B86:006B       __C0argc
 0B86:006D       __C0argv
 0B86:0071 idle  __C0environ
 0000:0B0C idle  __cexit
 0000:016A       __checknull
 0000:0157       __cleanup
 0B86:1E62       __ctype
 0000:0000  Abs  __cvtfak
 040A:0348       __cwt_bar
 0363:029B       __cwt_delete_widget
 040A:03AC idle  __cwt_fill_polygon
 040A:05BA idle  __cwt_get_bg_color
 040A:058C idle  __cwt_get_color
 040A:02AB idle  __cwt_get_fill_style
 040A:0310 idle  __cwt_get_font
 040A:0464 idle  __cwt_get_line_style
 040A:01ED       __cwt_get_viewport
 04D0:000C       __cwt_handle_events
 040A:0750 idle  __cwt_line
 040A:0774 idle  __cwt_lineto
 040A:0732 idle  __cwt_moveto
 040A:0555 idle  __cwt_outtext
 040A:04B2 idle  __cwt_outtext_xy
 040A:04EA idle  __cwt_outtext_xy_n
 04EE:00AE       __cwt_process_channel
 04DF:0007       __cwt_process_clock
 0500:0004       __cwt_process_keyboard
 0506:0002       __cwt_process_mouse
 0520:000E       __cwt_process_timer
 040A:037A idle  __cwt_rectangle
 040A:090E       __cwt_restore_settings
 040A:080D idle  __cwt_restore_video_memory
 040A:086A       __cwt_save_settings
 040A:0792 idle  __cwt_save_video_memory
 040A:05A1 idle  __cwt_set_bg_color
 040A:0573 idle  __cwt_set_color
 040A:026A idle  __cwt_set_default_font
 040A:028D       __cwt_set_fill_style
 040A:02E9 idle  __cwt_set_font
 040A:0443 idle  __cwt_set_line_style
 040A:0195 idle  __cwt_set_viewport
 040A:0106       __cwt_set_viewport_wh
 040A:06EC idle  __cwt_text_height
 040A:0669 idle  __cwt_text_size
 040A:05CF idle  __cwt_text_size_wh
 040A:06BC idle  __cwt_text_width
 0363:09FE idle  __cwt_widget_at
 0363:0913 idle  __cwt_widget_has_point
 0363:081C       __cwt_widget_recalc_abs
 0363:0769       __cwt_widget_repaint
 0000:0B1A idle  __c_exit
 0B86:1855       __DDO_ADD
 0B86:1D44       __default87
 0B86:212C idle  __doserrno
 0000:0CE7 idle  __DOSERROR
 0B86:212E idle  __dosErrorToSV
 0B86:18DC       __drawcolor
 0DB7:0000       __emu
 0B86:0075       __envLng
 0B86:0077       __envseg
 0B86:0079 idle  __envSize
 0000:0AFA       __exit
 0B86:1F64       __exitbuf
 0B86:1F68 idle  __exitfopen
 0B86:1F6C idle  __exitopen
 0B86:18DD       __fillcolor
 0B86:18E0       __fillstyle
 0B86:18D4       __FON_ADD
 0000:086C       __fperror
 0B86:212A       __fpstklen
 0000:049F idle  __fpuint
 0000:22B9 idle  __fputc
 0000:247E       __FPUTN
 0000:1C6B       __graphexit
 0000:1C79       __graphfreemem
 0000:1C8B       __graphgetmem
 0761:0329 idle  __GraphNotInstalled
 0761:22E0       __GRP_ovr
 0761:1BCF       __gr_cleardevice
 0761:1B6D       __gr_detectgraph
 0B86:18D2 idle  __gr_ErrCode
 0761:1E21       __gr_getmodename
 0761:1AAB       __gr_imagesize
 0761:1C03       __gr_lineto
 0761:1BE6       __gr_moveto
 0761:20F4       __gr_putimage
 0761:19B0       __gr_restorecrtmode
 0761:1EC2       __gr_setallpalette
 0761:1E5E       __gr_setbkcolor
 0761:1A5B       __gr_setfillpattern
 0761:1F4B       __gr_setfillstyle
 0761:197A       __gr_setgraphmode
 0761:1EDD       __gr_setlinestyle
 0761:1EA3       __gr_setpalette
 0761:1A8E       __gr_settextjustify
 0761:1FB1       __gr_settextstyle
 0761:2002       __gr_setusercharsize
 0761:194E       __gr_setviewport
 0761:2055       __gr_textheight
 0B86:0087       __heapbase
 0B86:008F       __heaptop
 0761:1BAA       __initdevice
 0761:1905       __installdevice
 0B86:005B idle  __Int0Vector
 0B86:005F idle  __Int4Vector
 0B86:0063 idle  __Int5Vector
 0B86:0067 idle  __Int6Vector
 0000:0CAE       __IOERROR
 0B86:1D41       __LDT
 0B86:18DF       __linestyle
 0000:0D0A       __LONGTOA
 0000:0293 idle  __MMODEL
 0B86:2100       __nfile
 0B86:2102       __openfd
 0B86:007D       __osmajor
 0B86:007E idle  __osminor
 0B86:007D idle  __osversion
 0B86:18E7 idle  __OverScanColor
 0000:091D       __POW10
 0B86:1D40       __protected
 0B86:007B       __psp
 0000:1D63       __REALCVT
 0B86:2240       __RealCvtVector
 0761:190A       __reinstalldevice
 0000:01C0       __restorezero
 0000:1BE0       __sbrk
 0B86:2244 idle  __ScanTodVector
 0000:0E38       __scantol
 0000:0000  Abs  __setargv__
 0000:0FFA       __setupio
 0B86:0081       __StartTime
 0B86:18D8       __StatOfs
 0B86:18DA       __StatSeg
 0B86:2188       __stklen
 0B86:1F70       __streams
 0000:016B       __terminate
 0000:0000  Abs  __turboCvt
 0000:0D8C idle  __UTOA
 0B86:007D       __version
 0000:10CC       __VPRINTER
 0000:2C33       __write
 0000:0660       __XCVT
 0000:2C6F       __xfflush
 0000:158F       ___assertfail
 0B86:0085 idle  ___brklvl
 0B86:05E8 idle  ___cwt_vtable
 0000:16F9 idle  ___first
 0000:03CE idle  ___fpreset
 0000:16FB idle  ___last
 0761:0178 idle  ___move
 0000:16FD idle  ___rover
 0B86:230A       ___SignalPtr
 0000:2AE2       ___write

  Address         Publics by Value

 0000:0000  Abs  FIDRQQ
 0000:0000  Abs  __setargv__
 0000:0000  Abs  __turboCvt
 0000:0000 idle  FIARQQ
 0000:0000 idle  FICRQQ
 0000:0000 idle  FISRQQ
 0000:0000  Abs  FIWRQQ
 0000:0000  Abs  FIERQQ
 0000:0000 idle  FJARQQ
 0000:0000 idle  FJCRQQ
 0000:0000 idle  FJSRQQ
 0000:0000  Abs  __cvtfak
 0000:000C idle  __AHSHIFT
 0000:0157       __cleanup
 0000:016A       __checknull
 0000:016B       __terminate
 0000:01C0       __restorezero
 0000:027A       _abort
 0000:0291 idle  DGROUP@
 0000:0293 idle  __MMODEL
 0000:03CE idle  ___fpreset
 0000:049F idle  __fpuint
 0000:0660       __XCVT
 0000:086C       __fperror
 0000:091D       __POW10
 0000:09E6       _pow10
 0000:09F1       F_FTOL@
 0000:09F1 idle  FTOL@
 0000:0A1D idle  _atexit
 0000:0A4A       _clock
 0000:0AEB       _exit
 0000:0AFA       __exit
 0000:0B0C idle  __cexit
 0000:0B1A idle  __c_exit
 0000:0B26       F_LXMUL@
 0000:0B26 idle  LXMUL@
 0000:0B3D       F_SCOPY@
 0000:0B3D idle  SCOPY@
 0000:0B59       _getdate
 0000:0B6C       _gettime
 0000:0B7F idle  N_LDIV@
 0000:0B82       F_LDIV@
 0000:0B82 idle  LDIV@
 0000:0B86 idle  N_LUDIV@
 0000:0B89 idle  F_LUDIV@
 0000:0B89 idle  LUDIV@
 0000:0B8E idle  N_LMOD@
 0000:0B91 idle  F_LMOD@
 0000:0B91 idle  LMOD@
 0000:0B96 idle  N_LUMOD@
 0000:0B99 idle  LUMOD@
 0000:0B99 idle  F_LUMOD@
 0000:0C2D       N_LXLSH@
 0000:0C30 idle  LXLSH@
 0000:0C30 idle  F_LXLSH@
 0000:0C4E       N_PADD@
 0000:0C51 idle  F_PADD@
 0000:0C51 idle  PADD@
 0000:0C7D idle  N_PSUB@
 0000:0C80 idle  F_PSUB@
 0000:0C80 idle  PSUB@
 0000:0CAE       __IOERROR
 0000:0CE7 idle  __DOSERROR
 0000:0CF9       _isatty
 0000:0D0A       __LONGTOA
 0000:0D8C idle  __UTOA
 0000:0DAC       _lseek
 0000:0DD5       N_LXMUL@
 0000:0DEC       N_PCMP@
 0000:0E38       __scantol
 0000:0FDA       _segread
 0000:0FFA       __setupio
 0000:1000 idle  __AHINCR
 0000:10CC       __VPRINTER
 0000:158F       ___assertfail
 0000:15BB       _bioskey
 0000:15E0       _calloc
 0000:1698       _delay
 0000:16F9 idle  ___first
 0000:16FB idle  ___last
 0000:16FD idle  ___rover
 0000:1839       _free
 0000:1839 idle  _farfree
 0000:1943       _malloc
 0000:194D idle  _farmalloc
 0000:1AAA idle  _realloc
 0000:1AB1 idle  _farrealloc
 0000:1BA1       __brk
 0000:1BE0       __sbrk
 0000:1C6B       __graphexit
 0000:1C79       __graphfreemem
 0000:1C8B       __graphgetmem
 0000:1C99       _int86
 0000:1CCA idle  _int86x
 0000:1D63       __REALCVT
 0000:1E92       _setblock
 0000:1EC0       F_OVERFLOW@
 0000:1EC0 idle  N_OVERFLOW@
 0000:1EC0 idle  OVERFLOW@
 0000:1ED2       _fflush
 0000:1F9F       _flushall
 0000:1FE1       _fprintf
 0000:207F       _fseek
 0000:20FF idle  _ftell
 0000:21DF       _memcpy
 0000:2203       _setmem
 0000:2227 idle  _memset
 0000:2246 idle  _movmem
 0000:2298       _memmove
 0000:22B9 idle  __fputc
 0000:22D5 idle  _fputc
 0000:246A idle  _fputchar
 0000:247E       __FPUTN
 0000:2681       _setvbuf
 0000:27DE idle  _sprintf
 0000:2800       _vsprintf
 0000:2821       _strdup
 0000:2867       _strlen
 0000:2886       _strncmp
 0000:28BE       _strncpy
 0000:2921       _strtol
 0000:2A37       _strtoul
 0000:2AE2       ___write
 0000:2C33       __write
 0000:2C6F       __xfflush
 02CA:0007       _jq_malloc
 02CA:004C       _jq_free
 02D2:0009 idle  _channel_new
 02D2:005E idle  _channel_delete
 02D2:00DD idle  _channel_can_read
 02D2:012D idle  _channel_can_write
 02D2:017D       _channel_bytes_available
 02D2:01CD idle  _channel_read
 02D2:024B idle  _channel_write
 02D2:02C9 idle  _channel_write_byte
 02D2:02F4 idle  _channel_read_begin
 02D2:0354 idle  _channel_read_commit
 02D2:03B4 idle  _channel_read_rollback
 0313:0004       _cwt_delete_widget
 0313:0055 idle  _cwt_deferred_delete_widget
 0313:0098 idle  _cwt_delete_children
 0313:00C4 idle  _cwt_widget_set_style
 0313:014E       _cwt_widget_set_styles
 0313:01E3       _cwt_widget_width
 0313:0219       _cwt_widget_height
 0313:024F       _cwt_widget_repaint
 0313:0296 idle  _cwt_widget_update
 0313:02E3       _cwt_widget_moveto
 0313:0341       _cwt_widget_resize
 0313:03DC       _cwt_widget_show
 0313:0495 idle  _cwt_widget_hide
 0363:0028 idle  _cwt_widget_by_id
 0363:004D       _cwt_new_widget
 0363:029B       __cwt_delete_widget
 0363:04FA idle  _cwt_clone_widget
 0363:0769       __cwt_widget_repaint
 0363:081C       __cwt_widget_recalc_abs
 0363:0913 idle  __cwt_widget_has_point
 0363:09FE idle  __cwt_widget_at
 040A:0001       _cwt_init
 040A:00DD       _cwt_finish
 040A:0106       __cwt_set_viewport_wh
 040A:0195 idle  __cwt_set_viewport
 040A:01ED       __cwt_get_viewport
 040A:0255       _cwt_default_font
 040A:026A idle  __cwt_set_default_font
 040A:028D       __cwt_set_fill_style
 040A:02AB idle  __cwt_get_fill_style
 040A:02E9 idle  __cwt_set_font
 040A:0310 idle  __cwt_get_font
 040A:0348       __cwt_bar
 040A:037A idle  __cwt_rectangle
 040A:03AC idle  __cwt_fill_polygon
 040A:0443 idle  __cwt_set_line_style
 040A:0464 idle  __cwt_get_line_style
 040A:04B2 idle  __cwt_outtext_xy
 040A:04EA idle  __cwt_outtext_xy_n
 040A:0555 idle  __cwt_outtext
 040A:0573 idle  __cwt_set_color
 040A:058C idle  __cwt_get_color
 040A:05A1 idle  __cwt_set_bg_color
 040A:05BA idle  __cwt_get_bg_color
 040A:05CF idle  __cwt_text_size_wh
 040A:0669 idle  __cwt_text_size
 040A:06BC idle  __cwt_text_width
 040A:06EC idle  __cwt_text_height
 040A:0732 idle  __cwt_moveto
 040A:0750 idle  __cwt_line
 040A:0774 idle  __cwt_lineto
 040A:0792 idle  __cwt_save_video_memory
 040A:080D idle  __cwt_restore_video_memory
 040A:086A       __cwt_save_settings
 040A:090E       __cwt_restore_settings
 04A4:006D       _cwt_quit
 04A4:008F       _cwt_post_event
 04A4:0262       _cwt_main_loop
 04A4:028D idle  _cwt_event_loop
 04D0:000C       __cwt_handle_events
 04DF:0007       __cwt_process_clock
 04EE:0003 idle  _cwt_add_channel_listener
 04EE:005E idle  _cwt_remove_channel_listener
 04EE:00AE       __cwt_process_channel
 0500:0004       __cwt_process_keyboard
 0506:0002       __cwt_process_mouse
 0520:000E       __cwt_process_timer
 0520:00C0 idle  _cwt_start_timer
 0536:000D       _int_hash
 0538:00D9       _hash_table_new
 0538:016E       _hash_table_free
 0538:01F9       _hash_table_register_free_functions
 0538:0342       _hash_table_insert
 0538:04C2       _hash_table_lookup
 0538:0558       _hash_table_remove
 0538:0620       _hash_table_num_entries
 0538:0637 idle  _hash_table_iterate
 0538:06AA idle  _hash_table_iter_has_more
 0538:06CC idle  _hash_table_iter_next
 05B1:0005 idle  _list_traverse
 05B1:004C idle  _list_insert_after
 05B1:0078 idle  _list_insert_first
 05B1:00A2 idle  _list_remove_after
 05B1:00E6 idle  _list_remove_first
 05B1:0127 idle  _list_find
 05B1:016D idle  _list_clear
 05B1:01E0 idle  _dlist_insert_after
 05B1:0246 idle  _dlist_insert_before
 05B1:02AB idle  _dlist_insert_first
 05B1:0313       _dlist_insert_last
 05B1:0361       _dlist_remove
 05B1:03E4       _dlist_traverse
 05B1:040D       _dlist_back_traverse
 05B1:0455       _dlist_find
 05B1:0478 idle  _dlist_clear
 05FC:0008 idle  _set_printer
 05FC:016D idle  _set_default_printers
 05FC:01F0       _init_loggers
 05FC:02A4 idle  _print_trace
 05FC:02C3 idle  _print_debug
 05FC:02E2 idle  _print_info
 05FC:0301 idle  _print_warn
 05FC:0320 idle  _print_error
 05FC:037A idle  _printf_trace
 05FC:03A9       _printf_debug
 05FC:03D8 idle  _printf_info
 05FC:0407 idle  _printf_warn
 05FC:0436       _printf_error
 0642:00E5       _main
 0655:0000       _cwt_mouse_init
 0655:0053       _cwt_mouse_ready
 0655:0066       _cwt_mouse_show
 0655:008E       _cwt_mouse_hide
 0655:00B6       _cwt_mouse_stat
 0655:010E idle  _cwt_mouse_setxy
 0655:0142 idle  _cwt_mouse_region
 066E:000A       _cwt_screen
 0675:0002       _strbuf_new_defaults
 0675:001E idle  _strbuf_new
 0675:00D5 idle  _strbuf_delete
 0675:0116 idle  _strbuf_clone
 0675:0199 idle  _strbuf_reserve
 0675:026F idle  _strbuf_lreserve
 0675:0339 idle  _strbuf_mreserve
 0675:0453 idle  _strbuf_capacity
 0675:048A idle  _strbuf_is_empty
 0675:04CB       _strbuf_clear
 0675:050D idle  _strbuf_size
 0675:0544 idle  _strbuf_append_char
 0675:05C3       _strbuf_append
 0675:0663 idle  _strbuf_prepend
 0675:06E4 idle  _strbuf_insert_char
 0675:0764 idle  _strbuf_insert
 0675:07FD idle  _strbuf_remove_char
 0675:0888       _strbuf_cstr
 0675:08B8 idle  _strbuf_substr
 0709:0006 idle  _str_to_long
 0709:00AF idle  _str_to_ulong
 0709:0158 idle  _str_to_uint
 0709:01A5       _strndup
 0728:000B       _cwt_new_style
 0728:00C2       _cwt_delete_style
 0728:011D       _cwt_assign_style
 0728:019D idle  _cwt_clone_style
 0728:01E0       _cwt_style_set_border
 0728:0241       _cwt_style_set_padding
 0728:0298       _cwt_style_set_color
 0728:02DB idle  _cwt_style_set_font
 0728:0348 idle  _cwt_style_set_align
 0761:0178 idle  ___move
 0761:0193       _grapherrormsg
 0761:030D       _graphresult
 0761:0329 idle  __GraphNotInstalled
 0761:03F3 idle  _registerfarbgidriver
 0761:04AC idle  _registerfarbgifont
 0761:059B idle  _setgraphbufsize
 0761:05D2 idle  _getmoderange
 0761:0671 idle  _detectgraph
 0761:089F idle  _graphdefaults
 0761:0985       _initgraph
 0761:0BF9 idle  _installuserdriver
 0761:0CE7       _installuserfont
 0761:0D91 idle  _setgraphmode
 0761:0E19 idle  _getgraphmode
 0761:0E3C idle  _restorecrtmode
 0761:0E6E       _closegraph
 0761:0F18       _cleardevice
 0761:0F33       _setviewport
 0761:0FAF       _getviewsettings
 0761:0FCE idle  _clearviewport
 0761:103F       _moveto
 0761:1066 idle  _moverel
 0761:1086 idle  _getx
 0761:1095 idle  _gety
 0761:10A4       _getmaxx
 0761:10B7       _getmaxy
 0761:10CA idle  _getdrivername
 0761:10F0 idle  _getmodename
 0761:1114       _lineto
 0761:113B idle  _linerel
 0761:1176       _getlinesettings
 0761:1195       _setlinestyle
 0761:11D8       _rectangle
 0761:122E       _getfillsettings
 0761:124B       _setfillstyle
 0761:127F idle  _getfillpattern
 0761:129F idle  _setfillpattern
 0761:1316 idle  _arc
 0761:1341 idle  _circle
 0761:136D idle  _getaspectratio
 0761:138B idle  _setaspectratio
 0761:13A3 idle  _pieslice
 0761:13CE       _setbkcolor
 0761:1408       _getcolor
 0761:1419       _getbkcolor
 0761:142A idle  _setallpalette
 0761:14D0 idle  _setpalette
 0761:1513       _getpalette
 0761:1532 idle  _imagesize
 0761:1567 idle  _putimage
 0761:15F6       _gettextsettings
 0761:1615       _outtext
 0761:1663       _settextjustify
 0761:16A4       _settextstyle
 0761:1873 idle  _setusercharsize
 0761:1899       _textheight
 0761:18AA idle  @DGROUP
 0761:18EE idle  _postdevice
 0761:1905       __installdevice
 0761:190A       __reinstalldevice
 0761:194E       __gr_setviewport
 0761:197A       __gr_setgraphmode
 0761:19B0       __gr_restorecrtmode
 0761:19EF idle  _setvisualpage
 0761:1A12 idle  _setactivepage
 0761:1A38       _setwritemode
 0761:1A5B       __gr_setfillpattern
 0761:1A8E       __gr_settextjustify
 0761:1AAB       __gr_imagesize
 0761:1AFC       __autodetect
 0761:1B6D       __gr_detectgraph
 0761:1BAA       __initdevice
 0761:1BCF       __gr_cleardevice
 0761:1BE6       __gr_moveto
 0761:1C03       __gr_lineto
 0761:1C20       _line
 0761:1C43 idle  _drawpoly
 0761:1C63       _fillpoly
 0761:1C83       _bar
 0761:1CA6 idle  _bar3d
 0761:1CE7       _ellipse
 0761:1D17 idle  _fillellipse
 0761:1D54       _sector
 0761:1D84 idle  _getarccoords
 0761:1DAD       _setcolor
 0761:1DCE       _getmaxcolor
 0761:1DE9       _getpalettesize
 0761:1E04       _getdefaultpalette
 0761:1E21       __gr_getmodename
 0761:1E42       _getmaxmode
 0761:1E5E       __gr_setbkcolor
 0761:1E7D idle  _setrgbpalette
 0761:1EA3       __gr_setpalette
 0761:1EC2       __gr_setallpalette
 0761:1EDD       __gr_setlinestyle
 0761:1F06 idle  _floodfill
 0761:1F4B       __gr_setfillstyle
 0761:1F7B       _outtextxy
 0761:1FB1       __gr_settextstyle
 0761:2002       __gr_setusercharsize
 0761:2028       _textwidth
 0761:2055       __gr_textheight
 0761:2076       _getpixel
 0761:2097       _putpixel
 0761:20B7 idle  _getimage
 0761:20F4       __gr_putimage
 0761:22E0       __GRP_ovr
 0B29:0306       e087_Entry
 0B29:03C6       e087_Shortcut
 0B29:0430       e087_Trap
 0B86:0000 idle  DATASEG@
 0B86:005B idle  __Int0Vector
 0B86:005F idle  __Int4Vector
 0B86:0063 idle  __Int5Vector
 0B86:0067 idle  __Int6Vector
 0B86:006B       __C0argc
 0B86:006D       __C0argv
 0B86:0071 idle  __C0environ
 0B86:0075       __envLng
 0B86:0077       __envseg
 0B86:0079 idle  __envSize
 0B86:007B       __psp
 0B86:007D idle  __osversion
 0B86:007D       __osmajor
 0B86:007D       __version
 0B86:007E idle  __osminor
 0B86:007F       _errno
 0B86:0081       __StartTime
 0B86:0085 idle  ___brklvl
 0B86:0087       __heapbase
 0B86:008B       __brklvl
 0B86:008F       __heaptop
 0B86:05E8 idle  ___cwt_vtable
 0B86:08A8 idle  _VP_LEFT
 0B86:08AA idle  _VP_TOP
 0B86:08AC idle  _VP_RIGHT
 0B86:08AE idle  _VP_BOTTOM
 0B86:0C26 idle  _LOGGER_CONTEXT
 0B86:0CB2 idle  _lorem_ipsum
 0B86:16B8       __BGI_ovr
 0B86:16BC       __BGI_auto
 0B86:1855       __DDO_ADD
 0B86:1859       __BGI_ADD
 0B86:18D2 idle  __gr_ErrCode
 0B86:18D4       __FON_ADD
 0B86:18D8       __StatOfs
 0B86:18DA       __StatSeg
 0B86:18DC       __drawcolor
 0B86:18DD       __fillcolor
 0B86:18DE idle  __backcolor
 0B86:18DF       __linestyle
 0B86:18E0       __fillstyle
 0B86:18E7 idle  __OverScanColor
 0B86:1D30 idle  __8087
 0B86:1D40       __protected
 0B86:1D41       __LDT
 0B86:1D44       __default87
 0B86:1E60       __atexitcnt
 0B86:1E62       __ctype
 0B86:1F64       __exitbuf
 0B86:1F68 idle  __exitfopen
 0B86:1F6C idle  __exitopen
 0B86:1F70       __streams
 0B86:2100       __nfile
 0B86:2102       __openfd
 0B86:212A       __fpstklen
 0B86:212C idle  __doserrno
 0B86:212E idle  __dosErrorToSV
 0B86:2188       __stklen
 0B86:222A idle  __argc
 0B86:222C idle  __argv
 0B86:2240       __RealCvtVector
 0B86:2244 idle  __ScanTodVector
 0B86:2288       __atexittbl
 0B86:230A       ___SignalPtr
 0DB7:0000       __emu

Line numbers for OBJ\ALLOC.OBJ(..\LIB\ALLOC.C) segment ALLOC_TEXT

    13 02CA:0007    15 02CA:0016    16 02CA:0025    17 02CA:0044
    18 02CA:004A    20 02CA:004C    22 02CA:005A    23 02CA:0079
    24 02CA:0087
Line numbers for OBJ\CHANNEL.OBJ(..\LIB\CHANNEL.C) segment CHANNEL_TEXT

     7 02D2:0009    11 02D2:0018    12 02D2:001F    14 02D2:0025
    15 02D2:0033    16 02D2:003E    17 02D2:004A    18 02D2:0056
    19 02D2:005C    21 02D2:005E    23 02D2:006C    25 02D2:0073
    26 02D2:0087    28 02D2:009B    29 02D2:00A5    30 02D2:00BB
    33 02D2:00CD    34 02D2:00DB    37 02D2:00DD    39 02D2:00EB
    40 02D2:010A    41 02D2:0124    42 02D2:0129    43 02D2:012B
    45 02D2:012D    47 02D2:013B    48 02D2:015A    49 02D2:0174
    50 02D2:0179    51 02D2:017B    54 02D2:017D    56 02D2:018B
    57 02D2:01B4    58 02D2:01CB    60 02D2:01CD    63 02D2:01DC
    64 02D2:0205    65 02D2:022D    66 02D2:0234    67 02D2:0240
    68 02D2:0249    70 02D2:024B    73 02D2:025A    74 02D2:0283
    75 02D2:02AB    76 02D2:02B2    77 02D2:02BE    78 02D2:02C7
    80 02D2:02C9    83 02D2:02D8    84 02D2:02DE    85 02D2:02F2
    88 02D2:02F4    90 02D2:0302    91 02D2:032B    92 02D2:033B
    93 02D2:0352    96 02D2:0352    98 02D2:0354   100 02D2:0362
   102 02D2:038B   103 02D2:039B   104 02D2:03B2   107 02D2:03B2
   109 02D2:03B4   111 02D2:03C2   113 02D2:03EB   114 02D2:03FB
   115 02D2:0412   118 02D2:0412
Line numbers for OBJ\CHERRY.OBJ(CHERRY.C) segment CHERRY_TEXT

    18 0313:0004    22 0313:0013    24 0313:0032    26 0313:003E
    27 0313:0045    28 0313:0053    36 0313:0055    38 0313:0063
    39 0313:0077    42 0313:0079    44 0313:0087    45 0313:0087
    46 0313:0094    47 0313:0096    49 0313:0098    51 0313:00A6
    52 0313:00C2    66 0313:00C4    68 0313:00D2    69 0313:00F1
    70 0313:0110    71 0313:0130    72 0313:013E    73 0313:014C
    75 0313:014E    78 0313:015D    79 0313:017C    81 0313:019B
    82 0313:019F    84 0313:01C4    85 0313:01D2    86 0313:01E0
    88 0313:01E3    90 0313:01F1    91 0313:0210    92 0313:0217
    94 0313:0219    96 0313:0227    97 0313:0246    98 0313:024D
   101 0313:024F   103 0313:025D   104 0313:027C   105 0313:0281
   106 0313:028F   107 0313:0294   109 0313:0296   111 0313:02A4
   113 0313:02C3   114 0313:02CD   115 0313:02E1   117 0313:02E3
   119 0313:02F1   120 0313:0310   121 0313:031A   122 0313:0324
   123 0313:0332   124 0313:033F   126 0313:0341   128 0313:034F
   129 0313:036F   130 0313:0379   131 0313:0383   132 0313:0390
   135 0313:0392   137 0313:03A1   138 0313:03A9   140 0313:03A9
   141 0313:03B2   142 0313:03BC   144 0313:03D8   145 0313:03DA
   147 0313:03DC   149 0313:03EA   150 0313:03F4   152 0313:03FD
   153 0313:0407   156 0313:0423   157 0313:042E   159 0313:043B
   161 0313:0448   164 0313:044A   166 0313:0459   167 0313:0461
   169 0313:0461   170 0313:046A   171 0313:0475   173 0313:0491
   174 0313:0493   177 0313:0495   179 0313:04A3   180 0313:04AD
   182 0313:04B6   183 0313:04C0   186 0313:04DC   187 0313:04E7
   189 0313:04F4   191 0313:0501
Line numbers for OBJ\CHERRY_P.OBJ(CHERRY_P.C) segment CHERRY_P_TEXT

   122 0363:0003   124 0363:0011   125 0363:0026   128 0363:0028
   130 0363:0036   131 0363:004B   134 0363:004D   136 0363:0061
   140 0363:0069   141 0363:0071   142 0363:008C   145 0363:00A4
   146 0363:00B9   148 0363:00D9   149 0363:00E4   151 0363:00EF
   152 0363:00F3   154 0363:00FB   155 0363:0107   156 0363:0113
   157 0363:011E   158 0363:0125   159 0363:012F   160 0363:013B
   161 0363:0144   162 0363:014D   163 0363:0156   164 0363:0162
   166 0363:016E   167 0363:0179   168 0363:017D   169 0363:0193
   172 0363:01B8   174 0363:01C1   176 0363:01C1   177 0363:01D1
   179 0363:01D1   189 0363:01E2   191 0363:01F2   192 0363:0201
   195 0363:0213   196 0363:021A   197 0363:0232   199 0363:0239
   202 0363:0247   203 0363:0251   206 0363:0271   207 0363:0277
   211 0363:027B   213 0363:0289   214 0363:0289   215 0363:0297
   216 0363:0299   218 0363:029B   222 0363:02AA   224 0363:02CA
   226 0363:02E6   227 0363:02F1   230 0363:030E   231 0363:0312
   234 0363:0332   236 0363:034C   237 0363:0360   241 0363:0377
   242 0363:0393   245 0363:03A3   246 0363:03B1   250 0363:03B4
   255 0363:03C8   256 0363:03E8   257 0363:0408   260 0363:042A
   261 0363:044E   263 0363:0459   264 0363:045D   267 0363:048E
   269 0363:049C   270 0363:04AA   271 0363:04B8   272 0363:04C6
   274 0363:04D4   275 0363:04E2   277 0363:04F0   278 0363:04F6
   289 0363:04FA   293 0363:050D   294 0363:0517   295 0363:0522
   296 0363:0538   297 0363:054B   298 0363:054D   299 0363:0560
   302 0363:057D   303 0363:0583   307 0363:0586   309 0363:0595
   310 0363:059D   312 0363:059D   313 0363:05A7   315 0363:05B5
   316 0363:05B7   319 0363:05B9   327 0363:05CA   328 0363:05E7
   329 0363:05E9   330 0363:05EB   331 0363:05F5   333 0363:05FF
   335 0363:060C   336 0363:061D   339 0363:062D   340 0363:0634
   341 0363:063B   342 0363:064C   344 0363:065D   345 0363:066E
   347 0363:067E   349 0363:068B   350 0363:069E   351 0363:06B1
   355 0363:06B1   356 0363:06D3   360 0363:06D3   363 0363:06F5
   365 0363:0707   366 0363:071B   368 0363:0732   369 0363:073C
   372 0363:0758   373 0363:0765   376 0363:0769   378 0363:0778
   387 0363:0782   388 0363:078C   390 0363:0796   391 0363:07A0
   394 0363:07AA   395 0363:07B7   397 0363:07CD   400 0363:07DA
   402 0363:07F1   405 0363:07F3   407 0363:0802   408 0363:080A
   410 0363:080A   411 0363:0818   412 0363:081A   420 0363:081C
   422 0363:082B   423 0363:084B   424 0363:0859   426 0363:0865
   429 0363:0865   431 0363:08A8   434 0363:08A8   437 0363:08EB
   438 0363:08F5   440 0363:0911   453 0363:0913   457 0363:092A
   459 0363:094A   460 0363:0954   461 0363:095E   462 0363:096B
   464 0363:0978   465 0363:098C   467 0363:0991   468 0363:0993
   471 0363:0997   473 0363:09A6   474 0363:09AE   475 0363:09B6
   477 0363:09C1   478 0363:09EA   479 0363:09F5   481 0363:09FA
   482 0363:09FC   484 0363:09FE   489 0363:0A0D   490 0363:0A15
   491 0363:0A1B   493 0363:0A21   497 0363:0A2E   499 0363:0A36
   501 0363:0A53   505 0363:0A5A   495 0363:0A62   508 0363:0A69
   509 0363:0A6F
Line numbers for OBJ\CORE.OBJ(CORE.C) segment CORE_TEXT

    27 040A:0001    30 040A:0012    31 040A:0017    35 040A:001B
    38 040A:0031    40 040A:0038    41 040A:003C    42 040A:0051
    46 040A:0056    47 040A:005E    49 040A:0070    51 040A:0077
    52 040A:007B    54 040A:007B    59 040A:009A    61 040A:009F
    62 040A:00AC    64 040A:00B4    66 040A:00B8    67 040A:00C5
    70 040A:00D1    72 040A:00D6    73 040A:00D9    76 040A:00DD
    78 040A:00EB    79 040A:00FA    80 040A:00FF    81 040A:0104
    84 040A:0106    86 040A:011C    87 040A:0120    88 040A:0124
    89 040A:012D    98 040A:0136    99 040A:013B   105 040A:0156
   107 040A:0191   110 040A:0195   112 040A:01A3   113 040A:01C2
   114 040A:01EB   116 040A:01ED   118 040A:01FC   128 040A:0203
   129 040A:0210   130 040A:0219   131 040A:0223   132 040A:0231
   133 040A:023F   136 040A:0253   138 040A:0255   140 040A:0263
   141 040A:0268   143 040A:026A   145 040A:0278   146 040A:0281
   147 040A:028B   150 040A:028D   152 040A:029B   153 040A:02A9
   155 040A:02AB   159 040A:02BA   161 040A:02C7   162 040A:02CE
   163 040A:02D7   164 040A:02DE   165 040A:02E7   167 040A:02E9
   169 040A:02F7   170 040A:030E   172 040A:0310   174 040A:031F
   176 040A:0326   177 040A:0333   178 040A:033C   180 040A:0346
   193 040A:0348   198 040A:035E   199 040A:0376   201 040A:037A
   206 040A:0390   207 040A:03A8   209 040A:03AC   214 040A:03BD
   216 040A:03D1   217 040A:03D7   218 040A:03E7   222 040A:03F8
   223 040A:0407   226 040A:0420   227 040A:0431   228 040A:043F
   230 040A:0443   232 040A:0451   233 040A:0462   236 040A:0464
   239 040A:0473   241 040A:0480   242 040A:0487   243 040A:0490
   244 040A:0497   245 040A:04A0   246 040A:04A7   247 040A:04B0
   249 040A:04B2   258 040A:04C1   259 040A:04CD   263 040A:04E8
   265 040A:04EA   267 040A:04FD   269 040A:0508   277 040A:051D
   278 040A:0529   283 040A:0544   285 040A:0552   288 040A:0555
   290 040A:0563   291 040A:0571   293 040A:0573   295 040A:0581
   296 040A:058A   299 040A:058C   301 040A:059A   302 040A:059F
   304 040A:05A1   306 040A:05AF   307 040A:05B8   309 040A:05BA
   311 040A:05C8   312 040A:05CD   324 040A:05CF   328 040A:05DE
   330 040A:05FE   331 040A:0605   332 040A:0611   335 040A:061E
   336 040A:0625   337 040A:0639   338 040A:0640   340 040A:0654
   341 040A:065B   342 040A:0667   344 040A:0669   346 040A:0677
   347 040A:0697   348 040A:06BA   350 040A:06BC   353 040A:06CB
   354 040A:06E7   355 040A:06EA   357 040A:06EC   360 040A:06FB
   361 040A:0702   363 040A:0711   364 040A:072D   365 040A:0730
   367 040A:0732   372 040A:0740   373 040A:074E   375 040A:0750
   382 040A:075E   383 040A:0772   385 040A:0774   390 040A:0782
   391 040A:0790   394 040A:0792   399 040A:07A3   400 040A:07A6
   401 040A:07AF   403 040A:07B8   404 040A:07CB   406 040A:07D3
   408 040A:07DA   409 040A:07DF   410 040A:07F8   407 040A:07F9
   412 040A:07FE   414 040A:0803   415 040A:0809   418 040A:080D
   422 040A:081E   423 040A:0821   424 040A:082A   426 040A:0833
   428 040A:083A   429 040A:083F   430 040A:085B   427 040A:085C
   432 040A:0861   433 040A:0866   441 040A:086A   443 040A:0878
   445 040A:0898   446 040A:08A5   447 040A:08B0   448 040A:08BB
   450 040A:08CC   453 040A:08CC   455 040A:08F1   456 040A:090C
   463 040A:090E   465 040A:091C   467 040A:093C   468 040A:0949
   469 040A:0955   470 040A:0961   472 040A:0972   475 040A:0972
   477 040A:098E   478 040A:09A3
Line numbers for OBJ\EVENT.OBJ(EVENT.C) segment EVENT_TEXT

    27 04A4:0005    29 04A4:0013    30 04A4:001B    32 04A4:001D
    34 04A4:002B    35 04A4:0032    36 04A4:003D    37 04A4:0048
    39 04A4:005D    41 04A4:006B    44 04A4:006D    46 04A4:007B
    47 04A4:008D    49 04A4:008F    51 04A4:009E    54 04A4:00AC
    55 04A4:00BA    56 04A4:00C3    57 04A4:00CF    58 04A4:00DB
    59 04A4:00E6    60 04A4:00FC    63 04A4:00FE    65 04A4:010C
    68 04A4:010E    72 04A4:011E    74 04A4:0120    75 04A4:0130
    76 04A4:0138    77 04A4:0142    78 04A4:0144    79 04A4:014C
    82 04A4:0156    84 04A4:0179    86 04A4:0184    87 04A4:018E
    88 04A4:0192    90 04A4:0198    92 04A4:01A3    96 04A4:01B7
    97 04A4:01C0   100 04A4:01C3   101 04A4:01CC   102 04A4:01D4
   103 04A4:01E5   107 04A4:01F3   109 04A4:0200   110 04A4:020E
    89 04A4:0219   114 04A4:0223   115 04A4:022E   118 04A4:0231
   120 04A4:023F   121 04A4:0244   122 04A4:0249   123 04A4:024E
   124 04A4:0253   126 04A4:0258   127 04A4:025C   128 04A4:0260
   131 04A4:0262   133 04A4:0270   135 04A4:0278   137 04A4:027D
   141 04A4:0285   143 04A4:0289   144 04A4:028B   146 04A4:028D
   148 04A4:029C   150 04A4:02A4   151 04A4:02AC   153 04A4:02B4
   157 04A4:02BC   159 04A4:02C0   160 04A4:02C8   161 04A4:02CA
Line numbers for OBJ\EVCHERRY.OBJ(EVCHERRY.C) segment EVCHERRY_TEXT

    11 04D0:000C    21 04D0:001B    24 04D0:0036    25 04D0:0074
    28 04D0:007B    50 04D0:007D    53 04D0:007F    54 04D0:008B
    55 04D0:00AA    59 04D0:00B7    60 04D0:00C3    61 04D0:00E2
    62 04D0:00F0    65 04D0:00F2    68 04D0:00F2    69 04D0:00F5
Line numbers for OBJ\EVCLOCK.OBJ(EVCLOCK.C) segment EVCLOCK_TEXT

    16 04DF:0007    21 04DF:0016    22 04DF:0023    24 04DF:0030
    27 04DF:0030    29 04DF:004B    30 04DF:0059    31 04DF:005F
    32 04DF:0065    33 04DF:006B    35 04DF:0071    36 04DF:007D
    39 04DF:0093    41 04DF:0093    43 04DF:00AE    45 04DF:00BC
    46 04DF:00C2    47 04DF:00C8    49 04DF:00CE    50 04DF:00DB
    52 04DF:00F1
Line numbers for OBJ\EVIO.OBJ(EVIO.C) segment EVIO_TEXT

    13 04EE:0003    15 04EE:0012    16 04EE:0020    18 04EE:003F
    19 04EE:004A    20 04EE:005C    22 04EE:005E    24 04EE:006D
    26 04EE:0085    27 04EE:008C    28 04EE:009E    30 04EE:00AC
    33 04EE:00AE    35 04EE:00BD    38 04EE:00C3    40 04EE:00CE
    41 04EE:00E0    42 04EE:00EE    44 04EE:00F9    47 04EE:010F
    37 04EE:011B    49 04EE:0122
Line numbers for OBJ\EVKBD.OBJ(EVKBD.C) segment EVKBD_TEXT

    11 0500:0004    13 0500:0013    14 0500:001F    15 0500:002D
    16 0500:003B    18 0500:004A    20 0500:0060
Line numbers for OBJ\EVMOUSE.OBJ(EVMOUSE.C) segment EVMOUSE_TEXT

    23 0506:0002    25 0506:0013    30 0506:001F    33 0506:0036
    36 0506:0054    38 0506:0062    40 0506:006C    41 0506:0074
    42 0506:007E    44 0506:0088    45 0506:0094    48 0506:009B
    49 0506:00AD    52 0506:00B4    53 0506:00C6    58 0506:00CD
    61 0506:00D9    65 0506:00D9    67 0506:00EA    68 0506:00FC
    69 0506:010E    71 0506:0120    72 0506:0124    73 0506:0133
    74 0506:0145    75 0506:0154    77 0506:0164    80 0506:0180
    81 0506:0182    85 0506:0198    86 0506:019E    87 0506:01A4
    90 0506:01AA
Line numbers for OBJ\EVTIMER.OBJ(EVTIMER.C) segment EVTIMER_TEXT

    23 0520:000E    25 0520:001D    29 0520:0024    31 0520:002F
    33 0520:003B    34 0520:004E    35 0520:005C    36 0520:0068
    37 0520:0076    38 0520:0088    40 0520:0096    43 0520:00AC
    28 0520:00B4    45 0520:00BE    54 0520:00C0    56 0520:00CF
    57 0520:00DD    58 0520:00EB    60 0520:010A    61 0520:0113
    62 0520:014E    63 0520:0159    64 0520:016B
Line numbers for OBJ\HASH_INT.OBJ(..\C_ALGO\HASH_INT.C) segment HASH_INT_TEXT

    25 0536:000D    29 0536:001C    31 0536:0024    32 0536:002D
Line numbers for OBJ\HASH_TAB.OBJ(..\C_ALGO\HASH_TAB.C) segment HASH_TAB_TEXT

    53 0538:000F    62 0538:001E    63 0538:002B    64 0538:0038
    65 0538:003A    68 0538:0046    72 0538:004D    73 0538:004D
    75 0538:0068    76 0538:0079    80 0538:007C    85 0538:008A
    86 0538:0095    91 0538:00A9    92 0538:00B4    97 0538:00C9
    98 0538:00D7   100 0538:00D9   107 0538:00E8   109 0538:00F6
   110 0538:00FD   113 0538:0103   114 0538:010F   115 0538:011B
   116 0538:0127   117 0538:0133   118 0538:013C   122 0538:0145
   123 0538:0156   128 0538:0166   129 0538:016C   131 0538:016E
   139 0538:017E   140 0538:0182   142 0538:019E   143 0538:01AA
   144 0538:01BD   141 0538:01C5   150 0538:01D6   154 0538:01E8
   155 0538:01F6   157 0538:01F9   161 0538:0207   162 0538:0213
   163 0538:021F   166 0538:0221   178 0538:0232   179 0538:023D
   180 0538:0244   184 0538:024E   186 0538:0255   190 0538:0266
   191 0538:0271   192 0538:0278   194 0538:0282   199 0538:0287
   200 0538:028C   203 0538:02A5   207 0538:02B1   211 0538:02DB
   212 0538:02FB   216 0538:0316   202 0538:031E   222 0538:032D
   224 0538:033B   225 0538:033E   227 0538:0342   237 0538:0352
   241 0538:0368   245 0538:0379   251 0538:037E   256 0538:03A3
   259 0538:03C0   266 0538:03DE   267 0538:03E9   273 0538:03FE
   274 0538:0409   277 0538:041D   278 0538:0428   284 0538:0437
   258 0538:0443   289 0538:044D   291 0538:045B   295 0538:0465
   296 0538:0470   300 0538:047C   301 0538:049B   305 0538:04B5
   309 0538:04BC   310 0538:04BF   312 0538:04C2   319 0538:04D1
   324 0538:04F7   327 0538:0514   331 0538:0532   333 0538:053F
   326 0538:054B   338 0538:0552   339 0538:0556   341 0538:0558
   350 0538:0568   357 0538:058E   358 0538:0590   362 0538:05A4
   366 0538:05C5   370 0538:05D0   374 0538:05DF   378 0538:05F2
   380 0538:05F9   382 0538:05FC   387 0538:05FE   360 0538:0611
   390 0538:061B   391 0538:061D   393 0538:0620   395 0538:062E
   396 0538:0635   398 0538:0637   402 0538:0645   406 0538:0650
   410 0538:065C   412 0538:0660   413 0538:0676   414 0538:0695
   415 0538:069C   418 0538:06A8   420 0538:06AA   422 0538:06B8
   423 0538:06CA   425 0538:06CC   432 0538:06DB   436 0538:06E6
   437 0538:06F1   442 0538:06F8   443 0538:0704   447 0538:0710
   451 0538:071B   453 0538:072B   457 0538:072D   461 0538:0737
   467 0538:0745   468 0538:075B   469 0538:077A   474 0538:077C
   463 0538:077D   477 0538:0786   480 0538:078D   481 0538:0793
Line numbers for OBJ\LIST.OBJ(..\LIB\LIST.C) segment LIST_TEXT

    17 05B1:0005    19 05B1:0014    22 05B1:001D    24 05B1:0037
    21 05B1:0043    26 05B1:004A    28 05B1:004C    30 05B1:005A
    31 05B1:006A    32 05B1:0076    34 05B1:0078    36 05B1:0086
    37 05B1:0095    38 05B1:00A0    40 05B1:00A2    42 05B1:00B1
    43 05B1:00BD    44 05B1:00C4    45 05B1:00DE    46 05B1:00E4
    48 05B1:00E6    50 05B1:00F5    51 05B1:0100    52 05B1:0107
    53 05B1:011F    54 05B1:0125    56 05B1:0127    58 05B1:0136
    61 05B1:013F    62 05B1:014C    63 05B1:0154    60 05B1:0160
    65 05B1:0167    66 05B1:016B    68 05B1:016D    73 05B1:0180
    74 05B1:0191    76 05B1:01A1    78 05B1:01AE    79 05B1:01B5
    81 05B1:01C1    72 05B1:01CC    84 05B1:01D3    85 05B1:01DE
    88 05B1:01E0    90 05B1:01EE    91 05B1:01FA    92 05B1:020A
    93 05B1:0215    95 05B1:0223    96 05B1:0238    97 05B1:0244
    99 05B1:0246   101 05B1:0254   102 05B1:0264   103 05B1:0270
   104 05B1:027B   106 05B1:0288   107 05B1:029D   108 05B1:02A9
   111 05B1:02AB   113 05B1:02B9   114 05B1:02C3   115 05B1:02CE
   116 05B1:02DA   117 05B1:02E6   118 05B1:02F2   119 05B1:02F4
   121 05B1:0311   123 05B1:0313   125 05B1:0321   126 05B1:032C
   128 05B1:0341   129 05B1:035F   132 05B1:0361   134 05B1:036F
   135 05B1:037A   137 05B1:038B   139 05B1:03A5   140 05B1:03B0
   142 05B1:03C2   144 05B1:03DC   145 05B1:03E2   147 05B1:03E4
   149 05B1:03F2   150 05B1:040B   152 05B1:040D   154 05B1:041C
   156 05B1:0426   158 05B1:0440   155 05B1:044C   160 05B1:0453
   162 05B1:0455   164 05B1:0463   165 05B1:0476   167 05B1:0478
   169 05B1:0486   170 05B1:049F   171 05B1:04AA   172 05B1:04B6
Line numbers for OBJ\LOGGER.OBJ(..\LIB\LOGGER.C) segment LOGGER_TEXT

    27 05FC:0008    31 05FC:001A    32 05FC:0029    33 05FC:003E
    36 05FC:004F    37 05FC:0056    39 05FC:0071    40 05FC:0080
    43 05FC:0092    44 05FC:0099    45 05FC:00AC    48 05FC:00AF
    49 05FC:00BD    51 05FC:00D5    52 05FC:00E3    54 05FC:00FB
    55 05FC:0109    57 05FC:0121    58 05FC:012F    60 05FC:0147
    61 05FC:0155    75 05FC:016D    77 05FC:017B    78 05FC:0192
    79 05FC:01A9    80 05FC:01C0    81 05FC:01D7    82 05FC:01EE
    84 05FC:01F0    86 05FC:01FE    87 05FC:0202    89 05FC:0204
    91 05FC:0216    92 05FC:022B    93 05FC:023A    94 05FC:025C
    95 05FC:0263    97 05FC:027E    98 05FC:02A1   100 05FC:02A4
   101 05FC:02C3   102 05FC:02E2   103 05FC:0301   104 05FC:0320
   107 05FC:033F   110 05FC:034E   111 05FC:0368   112 05FC:0378
   114 05FC:037A   117 05FC:0389   118 05FC:0392   119 05FC:03A7
   120 05FC:03A7   122 05FC:03A9   125 05FC:03B8   126 05FC:03C1
   127 05FC:03D6   128 05FC:03D6   130 05FC:03D8   133 05FC:03E7
   134 05FC:03F0   135 05FC:0405   136 05FC:0405   138 05FC:0407
   141 05FC:0416   142 05FC:041F   143 05FC:0434   144 05FC:0434
   146 05FC:0436   149 05FC:0445   150 05FC:044E   151 05FC:0463
   152 05FC:0463
Line numbers for OBJ\MAIN.OBJ(MAIN.C) segment MAIN_TEXT

    36 0642:0005    42 0642:0014    43 0642:002D    44 0642:005B
    46 0642:006D    47 0642:0078    48 0642:0090    49 0642:00A6
    50 0642:00B8    51 0642:00CC    64 0642:00CE    66 0642:00DC
    68 0642:00E1    70 0642:00E1    71 0642:00E3   365 0642:00E5
   367 0642:00F3   368 0642:00F3   370 0642:00F3   372 0642:00F8
   373 0642:0101   382 0642:0105   384 0642:0114   386 0642:0122
   388 0642:0127   391 0642:012B   392 0642:012E
Line numbers for OBJ\MOUSE.OBJ(MOUSE.C) segment MOUSE_TEXT

    15 0655:0000    17 0655:000E    18 0655:0014    19 0655:0026
    20 0655:002D    21 0655:0039    22 0655:003F    25 0655:0043
    26 0655:0049    27 0655:004E    28 0655:0051    30 0655:0053
    32 0655:0061    33 0655:0064    35 0655:0066    37 0655:0074
    38 0655:007A    39 0655:008C    41 0655:008E    43 0655:009C
    44 0655:00A2    45 0655:00B4    58 0655:00B6    60 0655:00C4
    61 0655:00CA    63 0655:00DC    64 0655:00E3    66 0655:00EC
    67 0655:00F3    69 0655:00FC    70 0655:0103    71 0655:010C
    73 0655:010E    75 0655:011C    76 0655:0122    77 0655:0128
    78 0655:012E    79 0655:0140    81 0655:0142    83 0655:0150
    84 0655:0156    85 0655:015C    86 0655:0162    88 0655:0174
    89 0655:017A    90 0655:0180    91 0655:0186    92 0655:0198
Line numbers for OBJ\SCREEN.OBJ(SCREEN.C) segment SCREEN_TEXT

    12 066E:000A    14 066E:0018    15 066E:0020    16 066E:0037
    17 066E:004B    19 066E:0069    20 066E:0070
Line numbers for OBJ\STRBUF.OBJ(..\LIB\STRBUF.C) segment STRBUF_TEXT

    17 0675:0002    19 0675:0010    20 0675:001C    22 0675:001E
    26 0675:0035    27 0675:0043    29 0675:0062    30 0675:0066
    33 0675:006A    34 0675:006E    37 0675:0072    38 0675:0076
    41 0675:0078    42 0675:0089    44 0675:00AB    45 0675:00B4
    46 0675:00BB    47 0675:00C4    49 0675:00CB    50 0675:00D1
    52 0675:00D5    54 0675:00E3    55 0675:00EA    56 0675:00F4
    57 0675:0106    59 0675:0114    62 0675:0116    64 0675:0125
    65 0675:012C    66 0675:0144    67 0675:014E    68 0675:017D
    70 0675:018B    72 0675:0193    73 0675:0197    76 0675:0199
    81 0675:01AD    83 0675:01CC    84 0675:01DD    86 0675:01E5
    90 0675:01EA    92 0675:01F6    93 0675:01FF    95 0675:0203
    97 0675:0210    99 0675:023B   100 0675:024D   101 0675:0258
   102 0675:0261   105 0675:0268   106 0675:026B   116 0675:026F
   120 0675:0283   122 0675:02A2   126 0675:02AE   128 0675:02BA
   130 0675:02C6   131 0675:02CF   133 0675:02D3   135 0675:02E0
   137 0675:030E   138 0675:0320   139 0675:032B   142 0675:0332
   143 0675:0335   153 0675:0339   159 0675:0350   161 0675:0370
   162 0675:0379   164 0675:038A   165 0675:038E   167 0675:039B
   169 0675:039E   171 0675:03AB   172 0675:03B7   174 0675:03BC
   176 0675:03CB   177 0675:03F0   179 0675:0425   180 0675:0437
   181 0675:0442   183 0675:044C   184 0675:044F   186 0675:0453
   188 0675:0461   189 0675:0481   190 0675:0488   193 0675:048A
   195 0675:0498   196 0675:04B8   197 0675:04C9   200 0675:04CB
   202 0675:04D9   203 0675:04F9   204 0675:0502   205 0675:050B
   207 0675:050D   209 0675:051B   210 0675:053B   211 0675:0542
   214 0675:0544   216 0675:0552   217 0675:0572   219 0675:059E
   220 0675:05BA   221 0675:05C1   223 0675:05C3   226 0675:05D2
   228 0675:05F2   229 0675:0602   231 0675:062D   232 0675:0659
   233 0675:0660   235 0675:0663   237 0675:0671   239 0675:0691
   240 0675:06BD   241 0675:06C4   242 0675:06DB   243 0675:06E2
   246 0675:06E4   248 0675:06F6   250 0675:0716   251 0675:0743
   252 0675:075A   253 0675:0761   255 0675:0764   258 0675:0774
   260 0675:0794   261 0675:07C4   262 0675:07C8   263 0675:07EF
   264 0675:07F9   266 0675:07FD   268 0675:080F   270 0675:082F
   273 0675:0839   274 0675:0842   275 0675:0849   278 0675:0885
   302 0675:0888   304 0675:0896   305 0675:08A5   306 0675:08AC
   307 0675:08B6   310 0675:08B8   312 0675:08CF   314 0675:08D7
   315 0675:08E0   316 0675:08FC   317 0675:090C   318 0675:0933
   321 0675:093C   322 0675:0942
Line numbers for OBJ\STRUTILS.OBJ(..\LIB\STRUTILS.C) segment STRUTILS_TEXT

    17 0709:0006    20 0709:0016    23 0709:0019    24 0709:0031
    25 0709:0034    26 0709:0038    27 0709:0052    28 0709:0055
    31 0709:0058    33 0709:0074    34 0709:007B    36 0709:0083
    37 0709:008C    38 0709:0093    39 0709:009B    43 0709:00A3
    44 0709:00AC    53 0709:00AF    56 0709:00BF    59 0709:00C2
    60 0709:00DA    61 0709:00DD    62 0709:00E1    63 0709:00FB
    64 0709:00FE    67 0709:0101    69 0709:011D    70 0709:0124
    72 0709:012C    73 0709:0135    74 0709:013C    75 0709:0144
    79 0709:014C    80 0709:0155    89 0709:0158    92 0709:0167
    94 0709:0181    95 0709:0191    96 0709:0198    98 0709:01A0
    99 0709:01A3   102 0709:01A5   104 0709:01B8   106 0709:01C0
   107 0709:01C4   108 0709:01D4   109 0709:01E9   112 0709:01F2
   113 0709:01F8
Line numbers for OBJ\STYLE.OBJ(STYLE.C) segment STYLE_TEXT

    12 0728:000B    17 0728:001B    19 0728:0026    21 0728:0034
    22 0728:003C    23 0728:0045    24 0728:004E    25 0728:005D
    27 0728:006B    31 0728:006B    32 0728:0089    34 0728:0092
    38 0728:0092    40 0728:00B0    42 0728:00B9    43 0728:00BF
    45 0728:00C2    47 0728:00D0    48 0728:00D7    50 0728:00DD
    52 0728:00FE    53 0728:010D    55 0728:011B    57 0728:011D
    59 0728:012B    60 0728:014A    62 0728:0169    63 0728:0173
    66 0728:0184    67 0728:018F    69 0728:0195    70 0728:019B
    72 0728:019D    76 0728:01AC    77 0728:01BA    78 0728:01D0
    80 0728:01D8    81 0728:01DE    83 0728:01E0    85 0728:01EE
    86 0728:020D    87 0728:0217    88 0728:0221    89 0728:022B
    90 0728:0235    91 0728:023F    94 0728:0241    96 0728:024F
    97 0728:026E    98 0728:0278    99 0728:0282   100 0728:028C
   101 0728:0296   103 0728:0298   105 0728:02A6   106 0728:02C5
   107 0728:02CF   108 0728:02D9   110 0728:02DB   112 0728:02EA
   113 0728:0309   114 0728:0328   115 0728:0336   116 0728:0345
   118 0728:0348   120 0728:0356   121 0728:0375   122 0728:037F
Program entry point at 0000:0000

